ARM Linker, 5.02 [Build 28] [MDK-ARM Standard][RL-ARM]

==============================================================================

Section Cross References

    main.o(i.main) refers to pwr.o(i.PWR_InitButtons) for PWR_InitButtons
    main.o(i.main) refers to diskio.o(i.disk_initialize) for disk_initialize
    main.o(i.main) refers to ff.o(i.f_mount) for f_mount
    main.o(i.main) refers to ili9481.o(i.LCD_Initialization) for LCD_Initialization
    main.o(i.main) refers to ili9481.o(i.LCD_Clear) for LCD_Clear
    main.o(i.main) refers to ili9481.o(i.LCD_Led_On) for LCD_Led_On
    main.o(i.main) refers to touchpanel.o(i.TP_Init) for TP_Init
    main.o(i.main) refers to pwr.o(i.PWR_CheckStartupCalibrate) for PWR_CheckStartupCalibrate
    main.o(i.main) refers to rtc_time.o(i.RTC_Time_Init) for RTC_Time_Init
    main.o(i.main) refers to formmanager.o(i.Get_Select_Form) for Get_Select_Form
    main.o(i.main) refers to formmanager.o(i.Form_Show) for Form_Show
    main.o(i.main) refers to formmanager.o(i.Form_Handle) for Form_Handle
    main.o(i.main) refers to sduser.o(.bss) for fs
    stm32f4xx_it.o(i.DMA2_Stream3_IRQHandler) refers to stm324xg_eval_sdio_sd.o(i.SD_ProcessDMAIRQ) for SD_ProcessDMAIRQ
    stm32f4xx_it.o(i.EXTI0_IRQHandler) refers to stm32f4xx_exti.o(i.EXTI_GetITStatus) for EXTI_GetITStatus
    stm32f4xx_it.o(i.EXTI0_IRQHandler) refers to stm32f4xx_exti.o(i.EXTI_ClearITPendingBit) for EXTI_ClearITPendingBit
    stm32f4xx_it.o(i.EXTI4_IRQHandler) refers to stm32f4xx_exti.o(i.EXTI_GetITStatus) for EXTI_GetITStatus
    stm32f4xx_it.o(i.EXTI4_IRQHandler) refers to stm32f4xx_exti.o(i.EXTI_ClearITPendingBit) for EXTI_ClearITPendingBit
    stm32f4xx_it.o(i.SDIO_IRQHandler) refers to stm324xg_eval_sdio_sd.o(i.SD_ProcessIRQSrc) for SD_ProcessIRQSrc
    stm32f4xx_it.o(i.SysTick_Handler) refers to stm32f4xx_gpio.o(i.GPIO_ReadInputDataBit) for GPIO_ReadInputDataBit
    stm32f4xx_it.o(i.SysTick_Handler) refers to formmanager.o(i.DrawClock) for DrawClock
    stm32f4xx_it.o(i.SysTick_Handler) refers to stm32f4xx_it.o(.data) for .data
    system_stm32f4xx.o(i.SystemCoreClockUpdate) refers to system_stm32f4xx.o(.data) for .data
    system_stm32f4xx.o(i.SystemInit) refers to system_stm32f4xx.o(i.SetSysClock) for SetSysClock
    stm32f4xx_rcc.o(i.RCC_GetClocksFreq) refers to stm32f4xx_rcc.o(.data) for .data
    stm32f4xx_rcc.o(i.RCC_WaitForHSEStartUp) refers to stm32f4xx_rcc.o(i.RCC_GetFlagStatus) for RCC_GetFlagStatus
    stm32f4xx_gpio.o(i.GPIO_DeInit) refers to stm32f4xx_rcc.o(i.RCC_AHB1PeriphResetCmd) for RCC_AHB1PeriphResetCmd
    stm32f4xx_syscfg.o(i.SYSCFG_DeInit) refers to stm32f4xx_rcc.o(i.RCC_APB2PeriphResetCmd) for RCC_APB2PeriphResetCmd
    stm32f4xx_flash.o(i.FLASH_EraseAllSectors) refers to stm32f4xx_flash.o(i.FLASH_WaitForLastOperation) for FLASH_WaitForLastOperation
    stm32f4xx_flash.o(i.FLASH_EraseSector) refers to stm32f4xx_flash.o(i.FLASH_WaitForLastOperation) for FLASH_WaitForLastOperation
    stm32f4xx_flash.o(i.FLASH_OB_Launch) refers to stm32f4xx_flash.o(i.FLASH_WaitForLastOperation) for FLASH_WaitForLastOperation
    stm32f4xx_flash.o(i.FLASH_OB_RDPConfig) refers to stm32f4xx_flash.o(i.FLASH_WaitForLastOperation) for FLASH_WaitForLastOperation
    stm32f4xx_flash.o(i.FLASH_OB_UserConfig) refers to stm32f4xx_flash.o(i.FLASH_WaitForLastOperation) for FLASH_WaitForLastOperation
    stm32f4xx_flash.o(i.FLASH_OB_WRPConfig) refers to stm32f4xx_flash.o(i.FLASH_WaitForLastOperation) for FLASH_WaitForLastOperation
    stm32f4xx_flash.o(i.FLASH_ProgramByte) refers to stm32f4xx_flash.o(i.FLASH_WaitForLastOperation) for FLASH_WaitForLastOperation
    stm32f4xx_flash.o(i.FLASH_ProgramDoubleWord) refers to stm32f4xx_flash.o(i.FLASH_WaitForLastOperation) for FLASH_WaitForLastOperation
    stm32f4xx_flash.o(i.FLASH_ProgramHalfWord) refers to stm32f4xx_flash.o(i.FLASH_WaitForLastOperation) for FLASH_WaitForLastOperation
    stm32f4xx_flash.o(i.FLASH_ProgramWord) refers to stm32f4xx_flash.o(i.FLASH_WaitForLastOperation) for FLASH_WaitForLastOperation
    stm32f4xx_flash.o(i.FLASH_WaitForLastOperation) refers to stm32f4xx_flash.o(i.FLASH_GetStatus) for FLASH_GetStatus
    stm32f4xx_sdio.o(i.SDIO_DeInit) refers to stm32f4xx_rcc.o(i.RCC_APB2PeriphResetCmd) for RCC_APB2PeriphResetCmd
    stm32f4xx_spi.o(i.SPI_I2S_DeInit) refers to stm32f4xx_rcc.o(i.RCC_APB2PeriphResetCmd) for RCC_APB2PeriphResetCmd
    stm32f4xx_spi.o(i.SPI_I2S_DeInit) refers to stm32f4xx_rcc.o(i.RCC_APB1PeriphResetCmd) for RCC_APB1PeriphResetCmd
    stm32f4xx_i2c.o(i.I2C_DeInit) refers to stm32f4xx_rcc.o(i.RCC_APB1PeriphResetCmd) for RCC_APB1PeriphResetCmd
    stm32f4xx_i2c.o(i.I2C_Init) refers to stm32f4xx_rcc.o(i.RCC_GetClocksFreq) for RCC_GetClocksFreq
    stm32f4xx_usart.o(i.USART_DeInit) refers to stm32f4xx_rcc.o(i.RCC_APB2PeriphResetCmd) for RCC_APB2PeriphResetCmd
    stm32f4xx_usart.o(i.USART_DeInit) refers to stm32f4xx_rcc.o(i.RCC_APB1PeriphResetCmd) for RCC_APB1PeriphResetCmd
    stm32f4xx_usart.o(i.USART_Init) refers to stm32f4xx_rcc.o(i.RCC_GetClocksFreq) for RCC_GetClocksFreq
    stm32f4xx_rtc.o(i.RTC_CoarseCalibCmd) refers to stm32f4xx_rtc.o(i.RTC_EnterInitMode) for RTC_EnterInitMode
    stm32f4xx_rtc.o(i.RTC_CoarseCalibCmd) refers to stm32f4xx_rtc.o(i.RTC_ExitInitMode) for RTC_ExitInitMode
    stm32f4xx_rtc.o(i.RTC_CoarseCalibConfig) refers to stm32f4xx_rtc.o(i.RTC_EnterInitMode) for RTC_EnterInitMode
    stm32f4xx_rtc.o(i.RTC_CoarseCalibConfig) refers to stm32f4xx_rtc.o(i.RTC_ExitInitMode) for RTC_ExitInitMode
    stm32f4xx_rtc.o(i.RTC_DeInit) refers to stm32f4xx_rtc.o(i.RTC_EnterInitMode) for RTC_EnterInitMode
    stm32f4xx_rtc.o(i.RTC_DeInit) refers to stm32f4xx_rtc.o(i.RTC_WaitForSynchro) for RTC_WaitForSynchro
    stm32f4xx_rtc.o(i.RTC_GetAlarm) refers to stm32f4xx_rtc.o(i.RTC_Bcd2ToByte) for RTC_Bcd2ToByte
    stm32f4xx_rtc.o(i.RTC_GetDate) refers to stm32f4xx_rtc.o(i.RTC_Bcd2ToByte) for RTC_Bcd2ToByte
    stm32f4xx_rtc.o(i.RTC_GetTime) refers to stm32f4xx_rtc.o(i.RTC_Bcd2ToByte) for RTC_Bcd2ToByte
    stm32f4xx_rtc.o(i.RTC_GetTimeStamp) refers to stm32f4xx_rtc.o(i.RTC_Bcd2ToByte) for RTC_Bcd2ToByte
    stm32f4xx_rtc.o(i.RTC_Init) refers to stm32f4xx_rtc.o(i.RTC_EnterInitMode) for RTC_EnterInitMode
    stm32f4xx_rtc.o(i.RTC_Init) refers to stm32f4xx_rtc.o(i.RTC_ExitInitMode) for RTC_ExitInitMode
    stm32f4xx_rtc.o(i.RTC_RefClockCmd) refers to stm32f4xx_rtc.o(i.RTC_EnterInitMode) for RTC_EnterInitMode
    stm32f4xx_rtc.o(i.RTC_RefClockCmd) refers to stm32f4xx_rtc.o(i.RTC_ExitInitMode) for RTC_ExitInitMode
    stm32f4xx_rtc.o(i.RTC_SetAlarm) refers to stm32f4xx_rtc.o(i.RTC_Bcd2ToByte) for RTC_Bcd2ToByte
    stm32f4xx_rtc.o(i.RTC_SetAlarm) refers to stm32f4xx_rtc.o(i.RTC_ByteToBcd2) for RTC_ByteToBcd2
    stm32f4xx_rtc.o(i.RTC_SetDate) refers to stm32f4xx_rtc.o(i.RTC_Bcd2ToByte) for RTC_Bcd2ToByte
    stm32f4xx_rtc.o(i.RTC_SetDate) refers to stm32f4xx_rtc.o(i.RTC_ByteToBcd2) for RTC_ByteToBcd2
    stm32f4xx_rtc.o(i.RTC_SetDate) refers to stm32f4xx_rtc.o(i.RTC_EnterInitMode) for RTC_EnterInitMode
    stm32f4xx_rtc.o(i.RTC_SetDate) refers to stm32f4xx_rtc.o(i.RTC_ExitInitMode) for RTC_ExitInitMode
    stm32f4xx_rtc.o(i.RTC_SetDate) refers to stm32f4xx_rtc.o(i.RTC_WaitForSynchro) for RTC_WaitForSynchro
    stm32f4xx_rtc.o(i.RTC_SetTime) refers to stm32f4xx_rtc.o(i.RTC_Bcd2ToByte) for RTC_Bcd2ToByte
    stm32f4xx_rtc.o(i.RTC_SetTime) refers to stm32f4xx_rtc.o(i.RTC_ByteToBcd2) for RTC_ByteToBcd2
    stm32f4xx_rtc.o(i.RTC_SetTime) refers to stm32f4xx_rtc.o(i.RTC_EnterInitMode) for RTC_EnterInitMode
    stm32f4xx_rtc.o(i.RTC_SetTime) refers to stm32f4xx_rtc.o(i.RTC_ExitInitMode) for RTC_ExitInitMode
    stm32f4xx_rtc.o(i.RTC_SetTime) refers to stm32f4xx_rtc.o(i.RTC_WaitForSynchro) for RTC_WaitForSynchro
    stm32f4xx_rtc.o(i.RTC_SynchroShiftConfig) refers to stm32f4xx_rtc.o(i.RTC_WaitForSynchro) for RTC_WaitForSynchro
    stm32f4xx_pwr.o(i.PWR_DeInit) refers to stm32f4xx_rcc.o(i.RCC_APB1PeriphResetCmd) for RCC_APB1PeriphResetCmd
    startup_stm32f4xx.o(RESET) refers to startup_stm32f4xx.o(STACK) for __initial_sp
    startup_stm32f4xx.o(RESET) refers to startup_stm32f4xx.o(.text) for Reset_Handler
    startup_stm32f4xx.o(RESET) refers to stm32f4xx_it.o(i.NMI_Handler) for NMI_Handler
    startup_stm32f4xx.o(RESET) refers to stm32f4xx_it.o(i.HardFault_Handler) for HardFault_Handler
    startup_stm32f4xx.o(RESET) refers to stm32f4xx_it.o(i.MemManage_Handler) for MemManage_Handler
    startup_stm32f4xx.o(RESET) refers to stm32f4xx_it.o(i.BusFault_Handler) for BusFault_Handler
    startup_stm32f4xx.o(RESET) refers to stm32f4xx_it.o(i.UsageFault_Handler) for UsageFault_Handler
    startup_stm32f4xx.o(RESET) refers to stm32f4xx_it.o(i.SVC_Handler) for SVC_Handler
    startup_stm32f4xx.o(RESET) refers to stm32f4xx_it.o(i.DebugMon_Handler) for DebugMon_Handler
    startup_stm32f4xx.o(RESET) refers to stm32f4xx_it.o(i.PendSV_Handler) for PendSV_Handler
    startup_stm32f4xx.o(RESET) refers to stm32f4xx_it.o(i.SysTick_Handler) for SysTick_Handler
    startup_stm32f4xx.o(RESET) refers to stm32f4xx_it.o(i.EXTI0_IRQHandler) for EXTI0_IRQHandler
    startup_stm32f4xx.o(RESET) refers to stm32f4xx_it.o(i.EXTI4_IRQHandler) for EXTI4_IRQHandler
    startup_stm32f4xx.o(RESET) refers to stm32f4xx_it.o(i.SDIO_IRQHandler) for SDIO_IRQHandler
    startup_stm32f4xx.o(RESET) refers to stm32f4xx_it.o(i.DMA2_Stream3_IRQHandler) for DMA2_Stream3_IRQHandler
    startup_stm32f4xx.o(.text) refers to system_stm32f4xx.o(i.SystemInit) for SystemInit
    startup_stm32f4xx.o(.text) refers to entry.o(.ARM.Collect$$$$00000000) for __main
    asciilib.o(i.GetASCIICode) refers to asciilib.o(.data) for .data
    asciilib.o(i.GetASCIICode) refers to asciilib.o(.constdata) for .constdata
    asciilib.o(i.GetCharHeight) refers to asciilib.o(.data) for .data
    asciilib.o(i.GetCharSize) refers to asciilib.o(.data) for .data
    asciilib.o(i.GetCharSize) refers to asciilib.o(.constdata) for .constdata
    asciilib.o(i.GetCharWidth) refers to asciilib.o(.data) for .data
    asciilib.o(i.GetCharWidth) refers to asciilib.o(.constdata) for .constdata
    asciilib.o(i.GetFont) refers to asciilib.o(.data) for .data
    asciilib.o(i.GetWidth) refers to asciilib.o(i.GetCharWidth) for GetCharWidth
    asciilib.o(i.SetFont) refers to asciilib.o(.data) for .data
    ili9481.o(i.LCD_CS_Init) refers to stm32f4xx_rcc.o(i.RCC_AHB1PeriphClockCmd) for RCC_AHB1PeriphClockCmd
    ili9481.o(i.LCD_CS_Init) refers to stm32f4xx_gpio.o(i.GPIO_Init) for GPIO_Init
    ili9481.o(i.LCD_CS_Init) refers to stm32f4xx_gpio.o(i.GPIO_ResetBits) for GPIO_ResetBits
    ili9481.o(i.LCD_Clear) refers to ili9481.o(i.LCD_SetCursor) for LCD_SetCursor
    ili9481.o(i.LCD_Clear) refers to ili9481.o(.data) for .data
    ili9481.o(i.LCD_CtrlLinesConfig) refers to stm32f4xx_rcc.o(i.RCC_AHB1PeriphClockCmd) for RCC_AHB1PeriphClockCmd
    ili9481.o(i.LCD_CtrlLinesConfig) refers to stm32f4xx_rcc.o(i.RCC_AHB3PeriphClockCmd) for RCC_AHB3PeriphClockCmd
    ili9481.o(i.LCD_CtrlLinesConfig) refers to stm32f4xx_gpio.o(i.GPIO_PinAFConfig) for GPIO_PinAFConfig
    ili9481.o(i.LCD_CtrlLinesConfig) refers to stm32f4xx_gpio.o(i.GPIO_Init) for GPIO_Init
    ili9481.o(i.LCD_FSMCConfig) refers to stm32f4xx_fsmc.o(i.FSMC_NORSRAMInit) for FSMC_NORSRAMInit
    ili9481.o(i.LCD_FSMCConfig) refers to stm32f4xx_fsmc.o(i.FSMC_NORSRAMCmd) for FSMC_NORSRAMCmd
    ili9481.o(i.LCD_FillRect) refers to ili9481.o(.data) for .data
    ili9481.o(i.LCD_GetPoint) refers to ili9481.o(i.LCD_WriteReg) for LCD_WriteReg
    ili9481.o(i.LCD_GetPoint) refers to ili9481.o(.data) for .data
    ili9481.o(i.LCD_HardwareScroll) refers to ili9481.o(.data) for .data
    ili9481.o(i.LCD_HardwareScroll_Position) refers to ili9481.o(.data) for .data
    ili9481.o(i.LCD_HardwareScroll_Position_Reset) refers to ili9481.o(.data) for .data
    ili9481.o(i.LCD_Hardware_InvertMode_Off) refers to ili9481.o(.data) for .data
    ili9481.o(i.LCD_Hardware_InvertMode_On) refers to ili9481.o(.data) for .data
    ili9481.o(i.LCD_Initialization) refers to ili9481.o(i.LCD_CS_Init) for LCD_CS_Init
    ili9481.o(i.LCD_Initialization) refers to ili9481.o(i.LCD_CtrlLinesConfig) for LCD_CtrlLinesConfig
    ili9481.o(i.LCD_Initialization) refers to ili9481.o(i.LCD_FSMCConfig) for LCD_FSMCConfig
    ili9481.o(i.LCD_Initialization) refers to ili9481.o(i.LCD_delay) for LCD_delay
    ili9481.o(i.LCD_Led_Off) refers to stm32f4xx_gpio.o(i.GPIO_ResetBits) for GPIO_ResetBits
    ili9481.o(i.LCD_Led_On) refers to stm32f4xx_gpio.o(i.GPIO_SetBits) for GPIO_SetBits
    ili9481.o(i.LCD_SetCursor) refers to ili9481.o(i.LCD_WriteReg) for LCD_WriteReg
    ili9481.o(i.LCD_SetPoint) refers to ili9481.o(i.LCD_WriteReg) for LCD_WriteReg
    ili9481.o(i.LCD_SetPoint) refers to ili9481.o(.data) for .data
    lcd.o(i.GUI_Circle) refers to ili9481.o(i.LCD_SetPoint) for LCD_SetPoint
    lcd.o(i.GUI_DrawImage) refers to ili9481.o(i.LCD_SetPoint) for LCD_SetPoint
    lcd.o(i.GUI_DrawImageWithReplace) refers to ili9481.o(i.LCD_SetPoint) for LCD_SetPoint
    lcd.o(i.GUI_DrawImageWithReplace_SD) refers to ff.o(i.f_open) for f_open
    lcd.o(i.GUI_DrawImageWithReplace_SD) refers to usercontrols_messagebox.o(i.MessageBox_Show) for MessageBox_Show
    lcd.o(i.GUI_DrawImageWithReplace_SD) refers to ff.o(i.f_read) for f_read
    lcd.o(i.GUI_DrawImageWithReplace_SD) refers to ili9481.o(i.LCD_SetPoint) for LCD_SetPoint
    lcd.o(i.GUI_DrawImageWithReplace_SD) refers to ff.o(i.f_close) for f_close
    lcd.o(i.GUI_DrawImageWithReplace_SD) refers to sduser.o(.bss) for fsrc
    lcd.o(i.GUI_DrawImage_SD) refers to ff.o(i.f_open) for f_open
    lcd.o(i.GUI_DrawImage_SD) refers to usercontrols_messagebox.o(i.MessageBox_Show) for MessageBox_Show
    lcd.o(i.GUI_DrawImage_SD) refers to ff.o(i.f_read) for f_read
    lcd.o(i.GUI_DrawImage_SD) refers to ili9481.o(i.LCD_SetPoint) for LCD_SetPoint
    lcd.o(i.GUI_DrawImage_SD) refers to ff.o(i.f_close) for f_close
    lcd.o(i.GUI_DrawImage_SD) refers to sduser.o(.bss) for fsrc
    lcd.o(i.GUI_DrawInvertImage) refers to ili9481.o(i.LCD_Hardware_InvertMode_On) for LCD_Hardware_InvertMode_On
    lcd.o(i.GUI_DrawInvertImage) refers to lcd.o(i.GUI_DrawImage) for GUI_DrawImage
    lcd.o(i.GUI_DrawInvertImage) refers to ili9481.o(i.LCD_Hardware_InvertMode_Off) for LCD_Hardware_InvertMode_Off
    lcd.o(i.GUI_DrawInvertImage_SD) refers to ili9481.o(i.LCD_Hardware_InvertMode_On) for LCD_Hardware_InvertMode_On
    lcd.o(i.GUI_DrawInvertImage_SD) refers to lcd.o(i.GUI_DrawImage_SD) for GUI_DrawImage_SD
    lcd.o(i.GUI_DrawInvertImage_SD) refers to ili9481.o(i.LCD_Hardware_InvertMode_Off) for LCD_Hardware_InvertMode_Off
    lcd.o(i.GUI_FillRectEllipce) refers to lcd.o(i.GUI_Line) for GUI_Line
    lcd.o(i.GUI_FillRectEllipce) refers to ili9481.o(i.LCD_FillRect) for LCD_FillRect
    lcd.o(i.GUI_Line) refers to ili9481.o(i.LCD_SetPoint) for LCD_SetPoint
    lcd.o(i.GUI_PutChar) refers to asciilib.o(i.GetCharSize) for GetCharSize
    lcd.o(i.GUI_PutChar) refers to asciilib.o(i.GetFont) for GetFont
    lcd.o(i.GUI_PutChar) refers to asciilib.o(i.GetASCIICode) for GetASCIICode
    lcd.o(i.GUI_PutChar) refers to ili9481.o(i.LCD_SetPoint) for LCD_SetPoint
    lcd.o(i.GUI_Rect) refers to lcd.o(i.GUI_Line) for GUI_Line
    lcd.o(i.GUI_RectEllipce) refers to ili9481.o(i.LCD_SetPoint) for LCD_SetPoint
    lcd.o(i.GUI_RectEllipce) refers to lcd.o(i.GUI_Line) for GUI_Line
    lcd.o(i.GUI_SmartClear) refers to ili9481.o(i.LCD_Clear) for LCD_Clear
    lcd.o(i.GUI_Text) refers to lcd.o(i.GUI_PutChar) for GUI_PutChar
    lcd.o(i.GUI_Text) refers to asciilib.o(i.GetCharSize) for GetCharSize
    stm324xg_eval.o(i.SD_LowLevel_DMA_RxConfig) refers to stm32f4xx_dma.o(i.DMA_ClearFlag) for DMA_ClearFlag
    stm324xg_eval.o(i.SD_LowLevel_DMA_RxConfig) refers to stm32f4xx_dma.o(i.DMA_Cmd) for DMA_Cmd
    stm324xg_eval.o(i.SD_LowLevel_DMA_RxConfig) refers to stm32f4xx_dma.o(i.DMA_DeInit) for DMA_DeInit
    stm324xg_eval.o(i.SD_LowLevel_DMA_RxConfig) refers to stm32f4xx_dma.o(i.DMA_Init) for DMA_Init
    stm324xg_eval.o(i.SD_LowLevel_DMA_RxConfig) refers to stm32f4xx_dma.o(i.DMA_ITConfig) for DMA_ITConfig
    stm324xg_eval.o(i.SD_LowLevel_DMA_RxConfig) refers to stm32f4xx_dma.o(i.DMA_FlowControllerConfig) for DMA_FlowControllerConfig
    stm324xg_eval.o(i.SD_LowLevel_DMA_TxConfig) refers to stm32f4xx_dma.o(i.DMA_ClearFlag) for DMA_ClearFlag
    stm324xg_eval.o(i.SD_LowLevel_DMA_TxConfig) refers to stm32f4xx_dma.o(i.DMA_Cmd) for DMA_Cmd
    stm324xg_eval.o(i.SD_LowLevel_DMA_TxConfig) refers to stm32f4xx_dma.o(i.DMA_DeInit) for DMA_DeInit
    stm324xg_eval.o(i.SD_LowLevel_DMA_TxConfig) refers to stm32f4xx_dma.o(i.DMA_Init) for DMA_Init
    stm324xg_eval.o(i.SD_LowLevel_DMA_TxConfig) refers to stm32f4xx_dma.o(i.DMA_ITConfig) for DMA_ITConfig
    stm324xg_eval.o(i.SD_LowLevel_DMA_TxConfig) refers to stm32f4xx_dma.o(i.DMA_FlowControllerConfig) for DMA_FlowControllerConfig
    stm324xg_eval.o(i.SD_LowLevel_DeInit) refers to stm32f4xx_sdio.o(i.SDIO_ClockCmd) for SDIO_ClockCmd
    stm324xg_eval.o(i.SD_LowLevel_DeInit) refers to stm32f4xx_sdio.o(i.SDIO_SetPowerState) for SDIO_SetPowerState
    stm324xg_eval.o(i.SD_LowLevel_DeInit) refers to stm32f4xx_sdio.o(i.SDIO_DeInit) for SDIO_DeInit
    stm324xg_eval.o(i.SD_LowLevel_DeInit) refers to stm32f4xx_rcc.o(i.RCC_APB2PeriphClockCmd) for RCC_APB2PeriphClockCmd
    stm324xg_eval.o(i.SD_LowLevel_DeInit) refers to stm32f4xx_gpio.o(i.GPIO_PinAFConfig) for GPIO_PinAFConfig
    stm324xg_eval.o(i.SD_LowLevel_DeInit) refers to stm32f4xx_gpio.o(i.GPIO_Init) for GPIO_Init
    stm324xg_eval.o(i.SD_LowLevel_Init) refers to stm32f4xx_rcc.o(i.RCC_AHB1PeriphClockCmd) for RCC_AHB1PeriphClockCmd
    stm324xg_eval.o(i.SD_LowLevel_Init) refers to stm32f4xx_gpio.o(i.GPIO_PinAFConfig) for GPIO_PinAFConfig
    stm324xg_eval.o(i.SD_LowLevel_Init) refers to stm32f4xx_gpio.o(i.GPIO_Init) for GPIO_Init
    stm324xg_eval.o(i.SD_LowLevel_Init) refers to stm32f4xx_rcc.o(i.RCC_APB2PeriphClockCmd) for RCC_APB2PeriphClockCmd
    stm324xg_eval.o(i.SD_NVIC_Configuration) refers to misc.o(i.NVIC_PriorityGroupConfig) for NVIC_PriorityGroupConfig
    stm324xg_eval.o(i.SD_NVIC_Configuration) refers to misc.o(i.NVIC_Init) for NVIC_Init
    stm324xg_eval.o(i.STM_EVAL_COMInit) refers to stm32f4xx_rcc.o(i.RCC_AHB1PeriphClockCmd) for RCC_AHB1PeriphClockCmd
    stm324xg_eval.o(i.STM_EVAL_COMInit) refers to stm32f4xx_rcc.o(i.RCC_APB1PeriphClockCmd) for RCC_APB1PeriphClockCmd
    stm324xg_eval.o(i.STM_EVAL_COMInit) refers to stm32f4xx_gpio.o(i.GPIO_PinAFConfig) for GPIO_PinAFConfig
    stm324xg_eval.o(i.STM_EVAL_COMInit) refers to stm32f4xx_gpio.o(i.GPIO_Init) for GPIO_Init
    stm324xg_eval.o(i.STM_EVAL_COMInit) refers to stm32f4xx_usart.o(i.USART_Init) for USART_Init
    stm324xg_eval.o(i.STM_EVAL_COMInit) refers to stm32f4xx_usart.o(i.USART_Cmd) for USART_Cmd
    stm324xg_eval.o(i.STM_EVAL_COMInit) refers to stm324xg_eval.o(.constdata) for .constdata
    stm324xg_eval.o(i.STM_EVAL_COMInit) refers to stm324xg_eval.o(.data) for .data
    stm324xg_eval.o(i.sEE_LowLevel_DMAConfig) refers to stm32f4xx_dma.o(i.DMA_Init) for DMA_Init
    stm324xg_eval.o(i.sEE_LowLevel_DMAConfig) refers to stm324xg_eval.o(.bss) for .bss
    stm324xg_eval.o(i.sEE_LowLevel_DeInit) refers to stm32f4xx_i2c.o(i.I2C_Cmd) for I2C_Cmd
    stm324xg_eval.o(i.sEE_LowLevel_DeInit) refers to stm32f4xx_i2c.o(i.I2C_DeInit) for I2C_DeInit
    stm324xg_eval.o(i.sEE_LowLevel_DeInit) refers to stm32f4xx_rcc.o(i.RCC_APB1PeriphClockCmd) for RCC_APB1PeriphClockCmd
    stm324xg_eval.o(i.sEE_LowLevel_DeInit) refers to stm32f4xx_gpio.o(i.GPIO_Init) for GPIO_Init
    stm324xg_eval.o(i.sEE_LowLevel_DeInit) refers to misc.o(i.NVIC_Init) for NVIC_Init
    stm324xg_eval.o(i.sEE_LowLevel_DeInit) refers to stm32f4xx_dma.o(i.DMA_Cmd) for DMA_Cmd
    stm324xg_eval.o(i.sEE_LowLevel_DeInit) refers to stm32f4xx_dma.o(i.DMA_DeInit) for DMA_DeInit
    stm324xg_eval.o(i.sEE_LowLevel_DeInit) refers to stm324xg_eval.o(.data) for .data
    stm324xg_eval.o(i.sEE_LowLevel_Init) refers to stm32f4xx_rcc.o(i.RCC_APB1PeriphClockCmd) for RCC_APB1PeriphClockCmd
    stm324xg_eval.o(i.sEE_LowLevel_Init) refers to stm32f4xx_rcc.o(i.RCC_AHB1PeriphClockCmd) for RCC_AHB1PeriphClockCmd
    stm324xg_eval.o(i.sEE_LowLevel_Init) refers to stm32f4xx_rcc.o(i.RCC_APB2PeriphClockCmd) for RCC_APB2PeriphClockCmd
    stm324xg_eval.o(i.sEE_LowLevel_Init) refers to stm32f4xx_rcc.o(i.RCC_APB1PeriphResetCmd) for RCC_APB1PeriphResetCmd
    stm324xg_eval.o(i.sEE_LowLevel_Init) refers to stm32f4xx_gpio.o(i.GPIO_PinAFConfig) for GPIO_PinAFConfig
    stm324xg_eval.o(i.sEE_LowLevel_Init) refers to stm32f4xx_gpio.o(i.GPIO_Init) for GPIO_Init
    stm324xg_eval.o(i.sEE_LowLevel_Init) refers to misc.o(i.NVIC_Init) for NVIC_Init
    stm324xg_eval.o(i.sEE_LowLevel_Init) refers to stm32f4xx_dma.o(i.DMA_ClearFlag) for DMA_ClearFlag
    stm324xg_eval.o(i.sEE_LowLevel_Init) refers to stm32f4xx_dma.o(i.DMA_Cmd) for DMA_Cmd
    stm324xg_eval.o(i.sEE_LowLevel_Init) refers to stm32f4xx_dma.o(i.DMA_DeInit) for DMA_DeInit
    stm324xg_eval.o(i.sEE_LowLevel_Init) refers to stm32f4xx_dma.o(i.DMA_Init) for DMA_Init
    stm324xg_eval.o(i.sEE_LowLevel_Init) refers to stm32f4xx_dma.o(i.DMA_ITConfig) for DMA_ITConfig
    stm324xg_eval.o(i.sEE_LowLevel_Init) refers to stm324xg_eval.o(.data) for .data
    stm324xg_eval.o(i.sEE_LowLevel_Init) refers to stm324xg_eval.o(.bss) for .bss
    stm324xg_eval_sdio_sd.o(i.CmdResp1Error) refers to stm32f4xx_sdio.o(i.SDIO_ClearFlag) for SDIO_ClearFlag
    stm324xg_eval_sdio_sd.o(i.CmdResp1Error) refers to stm32f4xx_sdio.o(i.SDIO_GetCommandResponse) for SDIO_GetCommandResponse
    stm324xg_eval_sdio_sd.o(i.CmdResp1Error) refers to stm32f4xx_sdio.o(i.SDIO_GetResponse) for SDIO_GetResponse
    stm324xg_eval_sdio_sd.o(i.CmdResp2Error) refers to stm32f4xx_sdio.o(i.SDIO_ClearFlag) for SDIO_ClearFlag
    stm324xg_eval_sdio_sd.o(i.CmdResp6Error) refers to stm32f4xx_sdio.o(i.SDIO_ClearFlag) for SDIO_ClearFlag
    stm324xg_eval_sdio_sd.o(i.CmdResp6Error) refers to stm32f4xx_sdio.o(i.SDIO_GetCommandResponse) for SDIO_GetCommandResponse
    stm324xg_eval_sdio_sd.o(i.CmdResp6Error) refers to stm32f4xx_sdio.o(i.SDIO_GetResponse) for SDIO_GetResponse
    stm324xg_eval_sdio_sd.o(i.FindSCR) refers to stm32f4xx_sdio.o(i.SDIO_SendCommand) for SDIO_SendCommand
    stm324xg_eval_sdio_sd.o(i.FindSCR) refers to stm324xg_eval_sdio_sd.o(i.CmdResp1Error) for CmdResp1Error
    stm324xg_eval_sdio_sd.o(i.FindSCR) refers to stm32f4xx_sdio.o(i.SDIO_DataConfig) for SDIO_DataConfig
    stm324xg_eval_sdio_sd.o(i.FindSCR) refers to stm32f4xx_sdio.o(i.SDIO_GetFlagStatus) for SDIO_GetFlagStatus
    stm324xg_eval_sdio_sd.o(i.FindSCR) refers to stm32f4xx_sdio.o(i.SDIO_ClearFlag) for SDIO_ClearFlag
    stm324xg_eval_sdio_sd.o(i.FindSCR) refers to stm32f4xx_sdio.o(i.SDIO_ReadData) for SDIO_ReadData
    stm324xg_eval_sdio_sd.o(i.FindSCR) refers to stm324xg_eval_sdio_sd.o(.bss) for .bss
    stm324xg_eval_sdio_sd.o(i.FindSCR) refers to stm324xg_eval_sdio_sd.o(.data) for .data
    stm324xg_eval_sdio_sd.o(i.IsCardProgramming) refers to stm32f4xx_sdio.o(i.SDIO_SendCommand) for SDIO_SendCommand
    stm324xg_eval_sdio_sd.o(i.IsCardProgramming) refers to stm32f4xx_sdio.o(i.SDIO_ClearFlag) for SDIO_ClearFlag
    stm324xg_eval_sdio_sd.o(i.IsCardProgramming) refers to stm32f4xx_sdio.o(i.SDIO_GetCommandResponse) for SDIO_GetCommandResponse
    stm324xg_eval_sdio_sd.o(i.IsCardProgramming) refers to stm32f4xx_sdio.o(i.SDIO_GetResponse) for SDIO_GetResponse
    stm324xg_eval_sdio_sd.o(i.IsCardProgramming) refers to stm324xg_eval_sdio_sd.o(.data) for .data
    stm324xg_eval_sdio_sd.o(i.IsCardProgramming) refers to stm324xg_eval_sdio_sd.o(.bss) for .bss
    stm324xg_eval_sdio_sd.o(i.SDEnWideBus) refers to stm32f4xx_sdio.o(i.SDIO_GetResponse) for SDIO_GetResponse
    stm324xg_eval_sdio_sd.o(i.SDEnWideBus) refers to stm324xg_eval_sdio_sd.o(i.FindSCR) for FindSCR
    stm324xg_eval_sdio_sd.o(i.SDEnWideBus) refers to stm32f4xx_sdio.o(i.SDIO_SendCommand) for SDIO_SendCommand
    stm324xg_eval_sdio_sd.o(i.SDEnWideBus) refers to stm324xg_eval_sdio_sd.o(i.CmdResp1Error) for CmdResp1Error
    stm324xg_eval_sdio_sd.o(i.SDEnWideBus) refers to stm324xg_eval_sdio_sd.o(.data) for .data
    stm324xg_eval_sdio_sd.o(i.SDEnWideBus) refers to stm324xg_eval_sdio_sd.o(.bss) for .bss
    stm324xg_eval_sdio_sd.o(i.SD_DeInit) refers to stm324xg_eval.o(i.SD_LowLevel_DeInit) for SD_LowLevel_DeInit
    stm324xg_eval_sdio_sd.o(i.SD_Detect) refers to stm32f4xx_gpio.o(i.GPIO_ReadInputDataBit) for GPIO_ReadInputDataBit
    stm324xg_eval_sdio_sd.o(i.SD_EnableWideBusOperation) refers to stm324xg_eval_sdio_sd.o(i.SDEnWideBus) for SDEnWideBus
    stm324xg_eval_sdio_sd.o(i.SD_EnableWideBusOperation) refers to stm32f4xx_sdio.o(i.SDIO_Init) for SDIO_Init
    stm324xg_eval_sdio_sd.o(i.SD_EnableWideBusOperation) refers to stm324xg_eval_sdio_sd.o(.data) for .data
    stm324xg_eval_sdio_sd.o(i.SD_EnableWideBusOperation) refers to stm324xg_eval_sdio_sd.o(.bss) for .bss
    stm324xg_eval_sdio_sd.o(i.SD_Erase) refers to stm32f4xx_sdio.o(i.SDIO_GetResponse) for SDIO_GetResponse
    stm324xg_eval_sdio_sd.o(i.SD_Erase) refers to stm32f4xx_sdio.o(i.SDIO_SendCommand) for SDIO_SendCommand
    stm324xg_eval_sdio_sd.o(i.SD_Erase) refers to stm324xg_eval_sdio_sd.o(i.CmdResp1Error) for CmdResp1Error
    stm324xg_eval_sdio_sd.o(i.SD_Erase) refers to stm324xg_eval_sdio_sd.o(i.IsCardProgramming) for IsCardProgramming
    stm324xg_eval_sdio_sd.o(i.SD_Erase) refers to stm324xg_eval_sdio_sd.o(.bss) for .bss
    stm324xg_eval_sdio_sd.o(i.SD_Erase) refers to stm324xg_eval_sdio_sd.o(.data) for .data
    stm324xg_eval_sdio_sd.o(i.SD_GetCardInfo) refers to stm324xg_eval_sdio_sd.o(.data) for .data
    stm324xg_eval_sdio_sd.o(i.SD_GetCardInfo) refers to stm324xg_eval_sdio_sd.o(.bss) for .bss
    stm324xg_eval_sdio_sd.o(i.SD_GetCardStatus) refers to stm324xg_eval_sdio_sd.o(i.SD_SendSDStatus) for SD_SendSDStatus
    stm324xg_eval_sdio_sd.o(i.SD_GetCardStatus) refers to stm324xg_eval_sdio_sd.o(.bss) for .bss
    stm324xg_eval_sdio_sd.o(i.SD_GetState) refers to stm324xg_eval_sdio_sd.o(i.SD_Detect) for SD_Detect
    stm324xg_eval_sdio_sd.o(i.SD_GetState) refers to stm324xg_eval_sdio_sd.o(i.SD_SendStatus) for SD_SendStatus
    stm324xg_eval_sdio_sd.o(i.SD_GetStatus) refers to stm324xg_eval_sdio_sd.o(i.SD_GetState) for SD_GetState
    stm324xg_eval_sdio_sd.o(i.SD_Init) refers to stm324xg_eval.o(i.SD_LowLevel_Init) for SD_LowLevel_Init
    stm324xg_eval_sdio_sd.o(i.SD_Init) refers to stm324xg_eval_sdio_sd.o(i.SD_PowerON) for SD_PowerON
    stm324xg_eval_sdio_sd.o(i.SD_Init) refers to stm324xg_eval_sdio_sd.o(i.SD_InitializeCards) for SD_InitializeCards
    stm324xg_eval_sdio_sd.o(i.SD_Init) refers to stm32f4xx_sdio.o(i.SDIO_Init) for SDIO_Init
    stm324xg_eval_sdio_sd.o(i.SD_Init) refers to stm324xg_eval_sdio_sd.o(i.SD_GetCardInfo) for SD_GetCardInfo
    stm324xg_eval_sdio_sd.o(i.SD_Init) refers to stm324xg_eval_sdio_sd.o(i.SD_SelectDeselect) for SD_SelectDeselect
    stm324xg_eval_sdio_sd.o(i.SD_Init) refers to stm324xg_eval_sdio_sd.o(i.SD_EnableWideBusOperation) for SD_EnableWideBusOperation
    stm324xg_eval_sdio_sd.o(i.SD_Init) refers to stm324xg_eval_sdio_sd.o(.bss) for .bss
    stm324xg_eval_sdio_sd.o(i.SD_InitializeCards) refers to stm32f4xx_sdio.o(i.SDIO_GetPowerState) for SDIO_GetPowerState
    stm324xg_eval_sdio_sd.o(i.SD_InitializeCards) refers to stm32f4xx_sdio.o(i.SDIO_SendCommand) for SDIO_SendCommand
    stm324xg_eval_sdio_sd.o(i.SD_InitializeCards) refers to stm324xg_eval_sdio_sd.o(i.CmdResp2Error) for CmdResp2Error
    stm324xg_eval_sdio_sd.o(i.SD_InitializeCards) refers to stm32f4xx_sdio.o(i.SDIO_GetResponse) for SDIO_GetResponse
    stm324xg_eval_sdio_sd.o(i.SD_InitializeCards) refers to stm324xg_eval_sdio_sd.o(i.CmdResp6Error) for CmdResp6Error
    stm324xg_eval_sdio_sd.o(i.SD_InitializeCards) refers to stm324xg_eval_sdio_sd.o(.data) for .data
    stm324xg_eval_sdio_sd.o(i.SD_InitializeCards) refers to stm324xg_eval_sdio_sd.o(.bss) for .bss
    stm324xg_eval_sdio_sd.o(i.SD_PowerOFF) refers to stm32f4xx_sdio.o(i.SDIO_SetPowerState) for SDIO_SetPowerState
    stm324xg_eval_sdio_sd.o(i.SD_PowerON) refers to stm32f4xx_sdio.o(i.SDIO_Init) for SDIO_Init
    stm324xg_eval_sdio_sd.o(i.SD_PowerON) refers to stm32f4xx_sdio.o(i.SDIO_SetPowerState) for SDIO_SetPowerState
    stm324xg_eval_sdio_sd.o(i.SD_PowerON) refers to stm32f4xx_sdio.o(i.SDIO_ClockCmd) for SDIO_ClockCmd
    stm324xg_eval_sdio_sd.o(i.SD_PowerON) refers to stm32f4xx_sdio.o(i.SDIO_SendCommand) for SDIO_SendCommand
    stm324xg_eval_sdio_sd.o(i.SD_PowerON) refers to stm32f4xx_sdio.o(i.SDIO_GetFlagStatus) for SDIO_GetFlagStatus
    stm324xg_eval_sdio_sd.o(i.SD_PowerON) refers to stm32f4xx_sdio.o(i.SDIO_ClearFlag) for SDIO_ClearFlag
    stm324xg_eval_sdio_sd.o(i.SD_PowerON) refers to stm324xg_eval_sdio_sd.o(i.CmdResp1Error) for CmdResp1Error
    stm324xg_eval_sdio_sd.o(i.SD_PowerON) refers to stm32f4xx_sdio.o(i.SDIO_GetResponse) for SDIO_GetResponse
    stm324xg_eval_sdio_sd.o(i.SD_PowerON) refers to stm324xg_eval_sdio_sd.o(.bss) for .bss
    stm324xg_eval_sdio_sd.o(i.SD_PowerON) refers to stm324xg_eval_sdio_sd.o(.data) for .data
    stm324xg_eval_sdio_sd.o(i.SD_ProcessDMAIRQ) refers to stm32f4xx_dma.o(i.DMA_ClearFlag) for DMA_ClearFlag
    stm324xg_eval_sdio_sd.o(i.SD_ProcessDMAIRQ) refers to stm324xg_eval_sdio_sd.o(.data) for .data
    stm324xg_eval_sdio_sd.o(i.SD_ProcessIRQSrc) refers to stm32f4xx_sdio.o(i.SDIO_GetITStatus) for SDIO_GetITStatus
    stm324xg_eval_sdio_sd.o(i.SD_ProcessIRQSrc) refers to stm32f4xx_sdio.o(i.SDIO_ClearITPendingBit) for SDIO_ClearITPendingBit
    stm324xg_eval_sdio_sd.o(i.SD_ProcessIRQSrc) refers to stm32f4xx_sdio.o(i.SDIO_ITConfig) for SDIO_ITConfig
    stm324xg_eval_sdio_sd.o(i.SD_ProcessIRQSrc) refers to stm324xg_eval_sdio_sd.o(.data) for .data
    stm324xg_eval_sdio_sd.o(i.SD_ReadBlock) refers to stm32f4xx_sdio.o(i.SDIO_SendCommand) for SDIO_SendCommand
    stm324xg_eval_sdio_sd.o(i.SD_ReadBlock) refers to stm324xg_eval_sdio_sd.o(i.CmdResp1Error) for CmdResp1Error
    stm324xg_eval_sdio_sd.o(i.SD_ReadBlock) refers to stm32f4xx_sdio.o(i.SDIO_DataConfig) for SDIO_DataConfig
    stm324xg_eval_sdio_sd.o(i.SD_ReadBlock) refers to stm32f4xx_sdio.o(i.SDIO_ITConfig) for SDIO_ITConfig
    stm324xg_eval_sdio_sd.o(i.SD_ReadBlock) refers to stm32f4xx_sdio.o(i.SDIO_DMACmd) for SDIO_DMACmd
    stm324xg_eval_sdio_sd.o(i.SD_ReadBlock) refers to stm324xg_eval.o(i.SD_LowLevel_DMA_RxConfig) for SD_LowLevel_DMA_RxConfig
    stm324xg_eval_sdio_sd.o(i.SD_ReadBlock) refers to stm324xg_eval_sdio_sd.o(.data) for .data
    stm324xg_eval_sdio_sd.o(i.SD_ReadBlock) refers to stm324xg_eval_sdio_sd.o(.bss) for .bss
    stm324xg_eval_sdio_sd.o(i.SD_ReadMultiBlocks) refers to stm32f4xx_sdio.o(i.SDIO_SendCommand) for SDIO_SendCommand
    stm324xg_eval_sdio_sd.o(i.SD_ReadMultiBlocks) refers to stm324xg_eval_sdio_sd.o(i.CmdResp1Error) for CmdResp1Error
    stm324xg_eval_sdio_sd.o(i.SD_ReadMultiBlocks) refers to stm32f4xx_sdio.o(i.SDIO_DataConfig) for SDIO_DataConfig
    stm324xg_eval_sdio_sd.o(i.SD_ReadMultiBlocks) refers to stm32f4xx_sdio.o(i.SDIO_ITConfig) for SDIO_ITConfig
    stm324xg_eval_sdio_sd.o(i.SD_ReadMultiBlocks) refers to stm32f4xx_sdio.o(i.SDIO_DMACmd) for SDIO_DMACmd
    stm324xg_eval_sdio_sd.o(i.SD_ReadMultiBlocks) refers to stm324xg_eval.o(i.SD_LowLevel_DMA_RxConfig) for SD_LowLevel_DMA_RxConfig
    stm324xg_eval_sdio_sd.o(i.SD_ReadMultiBlocks) refers to stm324xg_eval_sdio_sd.o(.data) for .data
    stm324xg_eval_sdio_sd.o(i.SD_ReadMultiBlocks) refers to stm324xg_eval_sdio_sd.o(.bss) for .bss
    stm324xg_eval_sdio_sd.o(i.SD_SelectDeselect) refers to stm32f4xx_sdio.o(i.SDIO_SendCommand) for SDIO_SendCommand
    stm324xg_eval_sdio_sd.o(i.SD_SelectDeselect) refers to stm324xg_eval_sdio_sd.o(i.CmdResp1Error) for CmdResp1Error
    stm324xg_eval_sdio_sd.o(i.SD_SelectDeselect) refers to stm324xg_eval_sdio_sd.o(.bss) for .bss
    stm324xg_eval_sdio_sd.o(i.SD_SendSDStatus) refers to stm32f4xx_sdio.o(i.SDIO_GetResponse) for SDIO_GetResponse
    stm324xg_eval_sdio_sd.o(i.SD_SendSDStatus) refers to stm32f4xx_sdio.o(i.SDIO_SendCommand) for SDIO_SendCommand
    stm324xg_eval_sdio_sd.o(i.SD_SendSDStatus) refers to stm324xg_eval_sdio_sd.o(i.CmdResp1Error) for CmdResp1Error
    stm324xg_eval_sdio_sd.o(i.SD_SendSDStatus) refers to stm32f4xx_sdio.o(i.SDIO_DataConfig) for SDIO_DataConfig
    stm324xg_eval_sdio_sd.o(i.SD_SendSDStatus) refers to stm32f4xx_sdio.o(i.SDIO_GetFlagStatus) for SDIO_GetFlagStatus
    stm324xg_eval_sdio_sd.o(i.SD_SendSDStatus) refers to stm32f4xx_sdio.o(i.SDIO_ClearFlag) for SDIO_ClearFlag
    stm324xg_eval_sdio_sd.o(i.SD_SendSDStatus) refers to stm32f4xx_sdio.o(i.SDIO_ReadData) for SDIO_ReadData
    stm324xg_eval_sdio_sd.o(i.SD_SendSDStatus) refers to stm324xg_eval_sdio_sd.o(.bss) for .bss
    stm324xg_eval_sdio_sd.o(i.SD_SendSDStatus) refers to stm324xg_eval_sdio_sd.o(.data) for .data
    stm324xg_eval_sdio_sd.o(i.SD_SendStatus) refers to stm32f4xx_sdio.o(i.SDIO_SendCommand) for SDIO_SendCommand
    stm324xg_eval_sdio_sd.o(i.SD_SendStatus) refers to stm324xg_eval_sdio_sd.o(i.CmdResp1Error) for CmdResp1Error
    stm324xg_eval_sdio_sd.o(i.SD_SendStatus) refers to stm32f4xx_sdio.o(i.SDIO_GetResponse) for SDIO_GetResponse
    stm324xg_eval_sdio_sd.o(i.SD_SendStatus) refers to stm324xg_eval_sdio_sd.o(.data) for .data
    stm324xg_eval_sdio_sd.o(i.SD_SendStatus) refers to stm324xg_eval_sdio_sd.o(.bss) for .bss
    stm324xg_eval_sdio_sd.o(i.SD_StopTransfer) refers to stm32f4xx_sdio.o(i.SDIO_SendCommand) for SDIO_SendCommand
    stm324xg_eval_sdio_sd.o(i.SD_StopTransfer) refers to stm324xg_eval_sdio_sd.o(i.CmdResp1Error) for CmdResp1Error
    stm324xg_eval_sdio_sd.o(i.SD_StopTransfer) refers to stm324xg_eval_sdio_sd.o(.bss) for .bss
    stm324xg_eval_sdio_sd.o(i.SD_WaitReadOperation) refers to stm324xg_eval_sdio_sd.o(i.SD_StopTransfer) for SD_StopTransfer
    stm324xg_eval_sdio_sd.o(i.SD_WaitReadOperation) refers to stm32f4xx_sdio.o(i.SDIO_ClearFlag) for SDIO_ClearFlag
    stm324xg_eval_sdio_sd.o(i.SD_WaitReadOperation) refers to stm324xg_eval_sdio_sd.o(.data) for .data
    stm324xg_eval_sdio_sd.o(i.SD_WaitWriteOperation) refers to stm324xg_eval_sdio_sd.o(i.SD_StopTransfer) for SD_StopTransfer
    stm324xg_eval_sdio_sd.o(i.SD_WaitWriteOperation) refers to stm32f4xx_sdio.o(i.SDIO_ClearFlag) for SDIO_ClearFlag
    stm324xg_eval_sdio_sd.o(i.SD_WaitWriteOperation) refers to stm324xg_eval_sdio_sd.o(.data) for .data
    stm324xg_eval_sdio_sd.o(i.SD_WriteBlock) refers to stm32f4xx_sdio.o(i.SDIO_SendCommand) for SDIO_SendCommand
    stm324xg_eval_sdio_sd.o(i.SD_WriteBlock) refers to stm324xg_eval_sdio_sd.o(i.CmdResp1Error) for CmdResp1Error
    stm324xg_eval_sdio_sd.o(i.SD_WriteBlock) refers to stm32f4xx_sdio.o(i.SDIO_DataConfig) for SDIO_DataConfig
    stm324xg_eval_sdio_sd.o(i.SD_WriteBlock) refers to stm32f4xx_sdio.o(i.SDIO_ITConfig) for SDIO_ITConfig
    stm324xg_eval_sdio_sd.o(i.SD_WriteBlock) refers to stm324xg_eval.o(i.SD_LowLevel_DMA_TxConfig) for SD_LowLevel_DMA_TxConfig
    stm324xg_eval_sdio_sd.o(i.SD_WriteBlock) refers to stm32f4xx_sdio.o(i.SDIO_DMACmd) for SDIO_DMACmd
    stm324xg_eval_sdio_sd.o(i.SD_WriteBlock) refers to stm324xg_eval_sdio_sd.o(.data) for .data
    stm324xg_eval_sdio_sd.o(i.SD_WriteBlock) refers to stm324xg_eval_sdio_sd.o(.bss) for .bss
    stm324xg_eval_sdio_sd.o(i.SD_WriteMultiBlocks) refers to stm32f4xx_sdio.o(i.SDIO_SendCommand) for SDIO_SendCommand
    stm324xg_eval_sdio_sd.o(i.SD_WriteMultiBlocks) refers to stm324xg_eval_sdio_sd.o(i.CmdResp1Error) for CmdResp1Error
    stm324xg_eval_sdio_sd.o(i.SD_WriteMultiBlocks) refers to stm32f4xx_sdio.o(i.SDIO_DataConfig) for SDIO_DataConfig
    stm324xg_eval_sdio_sd.o(i.SD_WriteMultiBlocks) refers to stm32f4xx_sdio.o(i.SDIO_ITConfig) for SDIO_ITConfig
    stm324xg_eval_sdio_sd.o(i.SD_WriteMultiBlocks) refers to stm32f4xx_sdio.o(i.SDIO_DMACmd) for SDIO_DMACmd
    stm324xg_eval_sdio_sd.o(i.SD_WriteMultiBlocks) refers to stm324xg_eval.o(i.SD_LowLevel_DMA_TxConfig) for SD_LowLevel_DMA_TxConfig
    stm324xg_eval_sdio_sd.o(i.SD_WriteMultiBlocks) refers to stm324xg_eval_sdio_sd.o(.data) for .data
    stm324xg_eval_sdio_sd.o(i.SD_WriteMultiBlocks) refers to stm324xg_eval_sdio_sd.o(.bss) for .bss
    diskio.o(i.disk_initialize) refers to stm324xg_eval.o(i.SD_NVIC_Configuration) for SD_NVIC_Configuration
    diskio.o(i.disk_initialize) refers to stm324xg_eval_sdio_sd.o(i.SD_Init) for SD_Init
    diskio.o(i.disk_read) refers to stm324xg_eval_sdio_sd.o(i.SD_ReadMultiBlocks) for SD_ReadMultiBlocks
    diskio.o(i.disk_read) refers to stm324xg_eval_sdio_sd.o(i.SD_WaitReadOperation) for SD_WaitReadOperation
    diskio.o(i.disk_read) refers to stm324xg_eval_sdio_sd.o(i.SD_GetStatus) for SD_GetStatus
    diskio.o(i.disk_write) refers to stm324xg_eval_sdio_sd.o(i.SD_WriteMultiBlocks) for SD_WriteMultiBlocks
    diskio.o(i.disk_write) refers to stm324xg_eval_sdio_sd.o(i.SD_WaitWriteOperation) for SD_WaitWriteOperation
    diskio.o(i.disk_write) refers to stm324xg_eval_sdio_sd.o(i.SD_GetStatus) for SD_GetStatus
    ff.o(i.check_fs) refers to diskio.o(i.disk_read) for disk_read
    ff.o(i.chk_mounted) refers to diskio.o(i.disk_status) for disk_status
    ff.o(i.chk_mounted) refers to diskio.o(i.disk_initialize) for disk_initialize
    ff.o(i.chk_mounted) refers to diskio.o(i.disk_ioctl) for disk_ioctl
    ff.o(i.chk_mounted) refers to ff.o(i.check_fs) for check_fs
    ff.o(i.chk_mounted) refers to diskio.o(i.disk_read) for disk_read
    ff.o(i.chk_mounted) refers to ff.o(.data) for .data
    ff.o(i.create_chain) refers to ff.o(i.get_fat) for get_fat
    ff.o(i.create_chain) refers to ff.o(i.put_fat) for put_fat
    ff.o(i.create_name) refers to ccsbcs.o(i.ff_convert) for ff_convert
    ff.o(i.create_name) refers to ff.o(i.chk_chr) for chk_chr
    ff.o(i.create_name) refers to ff.o(i.mem_set) for mem_set
    ff.o(i.create_name) refers to ff.o(.constdata) for .constdata
    ff.o(i.dir_find) refers to ff.o(i.dir_sdi) for dir_sdi
    ff.o(i.dir_find) refers to ff.o(i.move_window) for move_window
    ff.o(i.dir_find) refers to ccsbcs.o(i.ff_wtoupper) for ff_wtoupper
    ff.o(i.dir_find) refers to ff.o(i.sum_sfn) for sum_sfn
    ff.o(i.dir_find) refers to ff.o(i.dir_next) for dir_next
    ff.o(i.dir_find) refers to ff.o(.constdata) for .constdata
    ff.o(i.dir_next) refers to ff.o(i.get_fat) for get_fat
    ff.o(i.dir_next) refers to ff.o(i.create_chain) for create_chain
    ff.o(i.dir_next) refers to ff.o(i.sync_window) for sync_window
    ff.o(i.dir_next) refers to ff.o(i.mem_set) for mem_set
    ff.o(i.dir_next) refers to ff.o(i.clust2sect) for clust2sect
    ff.o(i.dir_read) refers to ff.o(i.move_window) for move_window
    ff.o(i.dir_read) refers to ff.o(i.dir_next) for dir_next
    ff.o(i.dir_read) refers to ff.o(i.sum_sfn) for sum_sfn
    ff.o(i.dir_read) refers to ff.o(.constdata) for .constdata
    ff.o(i.dir_register) refers to ff.o(i.mem_cpy) for mem_cpy
    ff.o(i.dir_register) refers to ff.o(i.gen_numname) for gen_numname
    ff.o(i.dir_register) refers to ff.o(i.dir_find) for dir_find
    ff.o(i.dir_register) refers to ff.o(i.dir_sdi) for dir_sdi
    ff.o(i.dir_register) refers to ff.o(i.move_window) for move_window
    ff.o(i.dir_register) refers to ff.o(i.dir_next) for dir_next
    ff.o(i.dir_register) refers to ff.o(i.sum_sfn) for sum_sfn
    ff.o(i.dir_register) refers to ff.o(i.mem_set) for mem_set
    ff.o(i.dir_register) refers to ff.o(.constdata) for .constdata
    ff.o(i.dir_remove) refers to ff.o(i.dir_sdi) for dir_sdi
    ff.o(i.dir_remove) refers to ff.o(i.move_window) for move_window
    ff.o(i.dir_remove) refers to ff.o(i.dir_next) for dir_next
    ff.o(i.dir_sdi) refers to ff.o(i.get_fat) for get_fat
    ff.o(i.dir_sdi) refers to ff.o(i.clust2sect) for clust2sect
    ff.o(i.f_chmod) refers to ff.o(i.chk_mounted) for chk_mounted
    ff.o(i.f_chmod) refers to ff.o(i.follow_path) for follow_path
    ff.o(i.f_chmod) refers to ff.o(i.sync_fs) for sync_fs
    ff.o(i.f_close) refers to ff.o(i.f_sync) for f_sync
    ff.o(i.f_getfree) refers to ff.o(i.chk_mounted) for chk_mounted
    ff.o(i.f_getfree) refers to ff.o(i.get_fat) for get_fat
    ff.o(i.f_getfree) refers to ff.o(i.move_window) for move_window
    ff.o(i.f_gets) refers to ff.o(i.f_read) for f_read
    ff.o(i.f_lseek) refers to ff.o(i.validate) for validate
    ff.o(i.f_lseek) refers to ff.o(i.create_chain) for create_chain
    ff.o(i.f_lseek) refers to ff.o(i.get_fat) for get_fat
    ff.o(i.f_lseek) refers to ff.o(i.clust2sect) for clust2sect
    ff.o(i.f_lseek) refers to diskio.o(i.disk_write) for disk_write
    ff.o(i.f_lseek) refers to diskio.o(i.disk_read) for disk_read
    ff.o(i.f_mkdir) refers to fattime.o(i.get_fattime) for get_fattime
    ff.o(i.f_mkdir) refers to ff.o(i.chk_mounted) for chk_mounted
    ff.o(i.f_mkdir) refers to ff.o(i.follow_path) for follow_path
    ff.o(i.f_mkdir) refers to ff.o(i.create_chain) for create_chain
    ff.o(i.f_mkdir) refers to ff.o(i.sync_window) for sync_window
    ff.o(i.f_mkdir) refers to ff.o(i.clust2sect) for clust2sect
    ff.o(i.f_mkdir) refers to ff.o(i.mem_set) for mem_set
    ff.o(i.f_mkdir) refers to ff.o(i.st_clust) for st_clust
    ff.o(i.f_mkdir) refers to ff.o(i.mem_cpy) for mem_cpy
    ff.o(i.f_mkdir) refers to ff.o(i.dir_register) for dir_register
    ff.o(i.f_mkdir) refers to ff.o(i.remove_chain) for remove_chain
    ff.o(i.f_mkdir) refers to ff.o(i.sync_fs) for sync_fs
    ff.o(i.f_mkfs) refers to diskio.o(i.disk_initialize) for disk_initialize
    ff.o(i.f_mkfs) refers to diskio.o(i.disk_ioctl) for disk_ioctl
    ff.o(i.f_mkfs) refers to ff.o(i.mem_set) for mem_set
    ff.o(i.f_mkfs) refers to diskio.o(i.disk_write) for disk_write
    ff.o(i.f_mkfs) refers to ff.o(i.mem_cpy) for mem_cpy
    ff.o(i.f_mkfs) refers to fattime.o(i.get_fattime) for get_fattime
    ff.o(i.f_mkfs) refers to ff.o(.data) for .data
    ff.o(i.f_mkfs) refers to ff.o(.constdata) for .constdata
    ff.o(i.f_mount) refers to ff.o(.data) for .data
    ff.o(i.f_open) refers to ff.o(i.chk_mounted) for chk_mounted
    ff.o(i.f_open) refers to ff.o(i.follow_path) for follow_path
    ff.o(i.f_open) refers to ff.o(i.dir_register) for dir_register
    ff.o(i.f_open) refers to fattime.o(i.get_fattime) for get_fattime
    ff.o(i.f_open) refers to ff.o(i.ld_clust) for ld_clust
    ff.o(i.f_open) refers to ff.o(i.st_clust) for st_clust
    ff.o(i.f_open) refers to ff.o(i.remove_chain) for remove_chain
    ff.o(i.f_open) refers to ff.o(i.move_window) for move_window
    ff.o(i.f_opendir) refers to ff.o(i.chk_mounted) for chk_mounted
    ff.o(i.f_opendir) refers to ff.o(i.follow_path) for follow_path
    ff.o(i.f_opendir) refers to ff.o(i.ld_clust) for ld_clust
    ff.o(i.f_opendir) refers to ff.o(i.dir_sdi) for dir_sdi
    ff.o(i.f_printf) refers to ff.o(i.f_putc) for f_putc
    ff.o(i.f_printf) refers to ff.o(i.f_puts) for f_puts
    ff.o(i.f_putc) refers to ff.o(i.f_write) for f_write
    ff.o(i.f_puts) refers to ff.o(i.f_putc) for f_putc
    ff.o(i.f_read) refers to ff.o(i.validate) for validate
    ff.o(i.f_read) refers to ff.o(i.get_fat) for get_fat
    ff.o(i.f_read) refers to ff.o(i.clust2sect) for clust2sect
    ff.o(i.f_read) refers to diskio.o(i.disk_read) for disk_read
    ff.o(i.f_read) refers to ff.o(i.mem_cpy) for mem_cpy
    ff.o(i.f_read) refers to diskio.o(i.disk_write) for disk_write
    ff.o(i.f_readdir) refers to ff.o(i.validate) for validate
    ff.o(i.f_readdir) refers to ff.o(i.dir_read) for dir_read
    ff.o(i.f_readdir) refers to ff.o(i.get_fileinfo) for get_fileinfo
    ff.o(i.f_readdir) refers to ff.o(i.dir_next) for dir_next
    ff.o(i.f_readdir) refers to ff.o(i.dir_sdi) for dir_sdi
    ff.o(i.f_rename) refers to ff.o(i.chk_mounted) for chk_mounted
    ff.o(i.f_rename) refers to ff.o(i.follow_path) for follow_path
    ff.o(i.f_rename) refers to ff.o(i.mem_cpy) for mem_cpy
    ff.o(i.f_rename) refers to ff.o(i.dir_register) for dir_register
    ff.o(i.f_rename) refers to ff.o(i.ld_clust) for ld_clust
    ff.o(i.f_rename) refers to ff.o(i.clust2sect) for clust2sect
    ff.o(i.f_rename) refers to ff.o(i.move_window) for move_window
    ff.o(i.f_rename) refers to ff.o(i.st_clust) for st_clust
    ff.o(i.f_rename) refers to ff.o(i.dir_remove) for dir_remove
    ff.o(i.f_rename) refers to ff.o(i.sync_fs) for sync_fs
    ff.o(i.f_stat) refers to ff.o(i.chk_mounted) for chk_mounted
    ff.o(i.f_stat) refers to ff.o(i.follow_path) for follow_path
    ff.o(i.f_stat) refers to ff.o(i.get_fileinfo) for get_fileinfo
    ff.o(i.f_sync) refers to ff.o(i.validate) for validate
    ff.o(i.f_sync) refers to diskio.o(i.disk_write) for disk_write
    ff.o(i.f_sync) refers to ff.o(i.move_window) for move_window
    ff.o(i.f_sync) refers to ff.o(i.st_clust) for st_clust
    ff.o(i.f_sync) refers to fattime.o(i.get_fattime) for get_fattime
    ff.o(i.f_sync) refers to ff.o(i.sync_fs) for sync_fs
    ff.o(i.f_truncate) refers to ff.o(i.validate) for validate
    ff.o(i.f_truncate) refers to ff.o(i.get_fat) for get_fat
    ff.o(i.f_truncate) refers to ff.o(i.remove_chain) for remove_chain
    ff.o(i.f_truncate) refers to ff.o(i.put_fat) for put_fat
    ff.o(i.f_unlink) refers to ff.o(i.chk_mounted) for chk_mounted
    ff.o(i.f_unlink) refers to ff.o(i.follow_path) for follow_path
    ff.o(i.f_unlink) refers to ff.o(i.ld_clust) for ld_clust
    ff.o(i.f_unlink) refers to ff.o(i.mem_cpy) for mem_cpy
    ff.o(i.f_unlink) refers to ff.o(i.dir_sdi) for dir_sdi
    ff.o(i.f_unlink) refers to ff.o(i.dir_read) for dir_read
    ff.o(i.f_unlink) refers to ff.o(i.dir_remove) for dir_remove
    ff.o(i.f_unlink) refers to ff.o(i.remove_chain) for remove_chain
    ff.o(i.f_unlink) refers to ff.o(i.sync_fs) for sync_fs
    ff.o(i.f_utime) refers to ff.o(i.chk_mounted) for chk_mounted
    ff.o(i.f_utime) refers to ff.o(i.follow_path) for follow_path
    ff.o(i.f_utime) refers to ff.o(i.sync_fs) for sync_fs
    ff.o(i.f_write) refers to ff.o(i.validate) for validate
    ff.o(i.f_write) refers to ff.o(i.create_chain) for create_chain
    ff.o(i.f_write) refers to diskio.o(i.disk_write) for disk_write
    ff.o(i.f_write) refers to ff.o(i.clust2sect) for clust2sect
    ff.o(i.f_write) refers to ff.o(i.mem_cpy) for mem_cpy
    ff.o(i.f_write) refers to diskio.o(i.disk_read) for disk_read
    ff.o(i.follow_path) refers to ff.o(i.dir_sdi) for dir_sdi
    ff.o(i.follow_path) refers to ff.o(i.create_name) for create_name
    ff.o(i.follow_path) refers to ff.o(i.dir_find) for dir_find
    ff.o(i.follow_path) refers to ff.o(i.ld_clust) for ld_clust
    ff.o(i.gen_numname) refers to ff.o(i.mem_cpy) for mem_cpy
    ff.o(i.get_fat) refers to ff.o(i.move_window) for move_window
    ff.o(i.get_fileinfo) refers to ccsbcs.o(i.ff_convert) for ff_convert
    ff.o(i.move_window) refers to ff.o(i.sync_window) for sync_window
    ff.o(i.move_window) refers to diskio.o(i.disk_read) for disk_read
    ff.o(i.put_fat) refers to ff.o(i.move_window) for move_window
    ff.o(i.remove_chain) refers to ff.o(i.get_fat) for get_fat
    ff.o(i.remove_chain) refers to ff.o(i.put_fat) for put_fat
    ff.o(i.sync_fs) refers to ff.o(i.sync_window) for sync_window
    ff.o(i.sync_fs) refers to ff.o(i.mem_set) for mem_set
    ff.o(i.sync_fs) refers to diskio.o(i.disk_write) for disk_write
    ff.o(i.sync_fs) refers to diskio.o(i.disk_ioctl) for disk_ioctl
    ff.o(i.sync_window) refers to diskio.o(i.disk_write) for disk_write
    ff.o(i.validate) refers to diskio.o(i.disk_status) for disk_status
    sduser.o(i.scan_files) refers to ff.o(i.f_opendir) for f_opendir
    sduser.o(i.scan_files) refers to strlen.o(.text) for strlen
    sduser.o(i.scan_files) refers to ff.o(i.f_readdir) for f_readdir
    sduser.o(i.scan_files) refers to printf6.o(i.__0sprintf$6) for __2sprintf
    sduser.o(i.scan_files) refers to usercontrols_listbox.o(i.UserControls_ListBox_Items_Add) for UserControls_ListBox_Items_Add
    sduser.o(i.scan_files) refers to sduser.o(.bss) for .bss
    sduser.o(i.scan_programs) refers to sduser.o(i.scan_files) for scan_files
    sduser.o(i.scan_programs) refers to sduser.o(.constdata) for .constdata
    ccsbcs.o(i.ff_convert) refers to ccsbcs.o(.constdata) for .constdata
    ccsbcs.o(i.ff_wtoupper) refers to ccsbcs.o(.constdata) for .constdata
    usercontrols_button.o(i.UserControls_Button_Add) refers to asciilib.o(i.GetWidth) for GetWidth
    usercontrols_button.o(i.UserControls_Button_Add) refers to usercontrols_button.o(i.UserControls_Button_Draw) for UserControls_Button_Draw
    usercontrols_button.o(i.UserControls_Button_Add) refers to usercontrols_messagebox.o(i.MessageBox_Show) for MessageBox_Show
    usercontrols_button.o(i.UserControls_Button_Add) refers to usercontrols_button.o(.data) for .data
    usercontrols_button.o(i.UserControls_Button_Add) refers to usercontrols_button.o(.bss) for .bss
    usercontrols_button.o(i.UserControls_Button_AddWithSize) refers to usercontrols_button.o(i.UserControls_Button_Draw) for UserControls_Button_Draw
    usercontrols_button.o(i.UserControls_Button_AddWithSize) refers to usercontrols_messagebox.o(i.MessageBox_Show) for MessageBox_Show
    usercontrols_button.o(i.UserControls_Button_AddWithSize) refers to usercontrols_button.o(.data) for .data
    usercontrols_button.o(i.UserControls_Button_AddWithSize) refers to usercontrols_button.o(.bss) for .bss
    usercontrols_button.o(i.UserControls_Button_Clear) refers to usercontrols_button.o(.data) for .data
    usercontrols_button.o(i.UserControls_Button_Draw) refers to lcd.o(i.GUI_FillRectEllipce) for GUI_FillRectEllipce
    usercontrols_button.o(i.UserControls_Button_Draw) refers to lcd.o(i.GUI_RectEllipce) for GUI_RectEllipce
    usercontrols_button.o(i.UserControls_Button_Draw) refers to asciilib.o(i.SetFont) for SetFont
    usercontrols_button.o(i.UserControls_Button_Draw) refers to asciilib.o(i.GetCharHeight) for GetCharHeight
    usercontrols_button.o(i.UserControls_Button_Draw) refers to asciilib.o(i.GetWidth) for GetWidth
    usercontrols_button.o(i.UserControls_Button_Draw) refers to lcd.o(i.GUI_Text) for GUI_Text
    usercontrols_button.o(i.UserControls_Button_Draw) refers to lcd.o(i.GUI_DrawImage_SD) for GUI_DrawImage_SD
    usercontrols_button.o(i.UserControls_Button_Draw) refers to lcd.o(i.GUI_Rect) for GUI_Rect
    usercontrols_button.o(i.UserControls_Button_DrawSTDsize) refers to asciilib.o(i.GetWidth) for GetWidth
    usercontrols_button.o(i.UserControls_Button_DrawSTDsize) refers to lcd.o(i.GUI_FillRectEllipce) for GUI_FillRectEllipce
    usercontrols_button.o(i.UserControls_Button_DrawSTDsize) refers to asciilib.o(i.SetFont) for SetFont
    usercontrols_button.o(i.UserControls_Button_DrawSTDsize) refers to lcd.o(i.GUI_Text) for GUI_Text
    usercontrols_button.o(i.UserControls_Button_DrawSTDsize) refers to lcd.o(i.GUI_RectEllipce) for GUI_RectEllipce
    usercontrols_button.o(i.UserControls_Button_GetControl) refers to strcmp.o(.text) for strcmp
    usercontrols_button.o(i.UserControls_Button_GetControl) refers to usercontrols_messagebox.o(i.MessageBox_Show) for MessageBox_Show
    usercontrols_button.o(i.UserControls_Button_GetControl) refers to usercontrols_button.o(.bss) for .bss
    usercontrols_button.o(i.UserControls_Button_GetControl) refers to usercontrols_button.o(.data) for .data
    usercontrols_button.o(i.UserControls_Button_GetLastControl) refers to usercontrols_messagebox.o(i.MessageBox_Show) for MessageBox_Show
    usercontrols_button.o(i.UserControls_Button_GetLastControl) refers to usercontrols_button.o(.constdata) for .constdata
    usercontrols_button.o(i.UserControls_Button_GetLastControl) refers to usercontrols_button.o(.data) for .data
    usercontrols_button.o(i.UserControls_Button_Handle) refers to usercontrols_button.o(i.UserControls_Button_Draw) for UserControls_Button_Draw
    usercontrols_button.o(i.UserControls_Button_Handle) refers to usercontrols_button.o(.bss) for .bss
    usercontrols_button.o(i.UserControls_Button_Handle) refers to usercontrols_button.o(.data) for .data
    usercontrols_button.o(i.UserControls_Button_RedrawAll) refers to usercontrols_button.o(i.UserControls_Button_Draw) for UserControls_Button_Draw
    usercontrols_button.o(i.UserControls_Button_RedrawAll) refers to usercontrols_button.o(.data) for .data
    usercontrols_button.o(i.UserControls_Button_RedrawAll) refers to usercontrols_button.o(.bss) for .bss
    usercontrols_button.o(i.UserControls_Button_RedrawControls) refers to usercontrols_button.o(i.UserControls_Button_Draw) for UserControls_Button_Draw
    usercontrols_button.o(i.UserControls_Button_RedrawControls) refers to usercontrols_button.o(.bss) for .bss
    usercontrols_button.o(i.UserControls_Button_SizeOffset) refers to usercontrols_button.o(.bss) for .bss
    usercontrols_checkbox.o(i.UserControls_CheckBox_Add) refers to usercontrols_checkbox.o(i.UserControls_CheckBox_Draw) for UserControls_CheckBox_Draw
    usercontrols_checkbox.o(i.UserControls_CheckBox_Add) refers to usercontrols_messagebox.o(i.MessageBox_Show) for MessageBox_Show
    usercontrols_checkbox.o(i.UserControls_CheckBox_Add) refers to usercontrols_checkbox.o(.data) for .data
    usercontrols_checkbox.o(i.UserControls_CheckBox_Add) refers to usercontrols_checkbox.o(.bss) for .bss
    usercontrols_checkbox.o(i.UserControls_CheckBox_Clear) refers to usercontrols_checkbox.o(.data) for .data
    usercontrols_checkbox.o(i.UserControls_CheckBox_Draw) refers to lcd.o(i.GUI_DrawImage) for GUI_DrawImage
    usercontrols_checkbox.o(i.UserControls_CheckBox_Draw) refers to strlen.o(.text) for strlen
    usercontrols_checkbox.o(i.UserControls_CheckBox_Draw) refers to lcd.o(i.GUI_Text) for GUI_Text
    usercontrols_checkbox.o(i.UserControls_CheckBox_Draw) refers to usercontrols_radiobutton.o(.constdata) for Radio2
    usercontrols_checkbox.o(i.UserControls_CheckBox_Get) refers to usercontrols_checkbox.o(.bss) for .bss
    usercontrols_checkbox.o(i.UserControls_CheckBox_Handle) refers to strlen.o(.text) for strlen
    usercontrols_checkbox.o(i.UserControls_CheckBox_Handle) refers to usercontrols_checkbox.o(i.UserControls_CheckBox_Draw) for UserControls_CheckBox_Draw
    usercontrols_checkbox.o(i.UserControls_CheckBox_Handle) refers to usercontrols_checkbox.o(.data) for .data
    usercontrols_checkbox.o(i.UserControls_CheckBox_Handle) refers to usercontrols_checkbox.o(.bss) for .bss
    usercontrols_listbox.o(i.UserControls_ListBox_Active) refers to usercontrols_listbox.o(.data) for .data
    usercontrols_listbox.o(i.UserControls_ListBox_Add) refers to usercontrols_messagebox.o(i.MessageBox_Show) for MessageBox_Show
    usercontrols_listbox.o(i.UserControls_ListBox_Add) refers to usercontrols_listbox.o(i.UserControls_ListBox_Draw) for UserControls_ListBox_Draw
    usercontrols_listbox.o(i.UserControls_ListBox_Add) refers to usercontrols_listbox.o(.data) for .data
    usercontrols_listbox.o(i.UserControls_ListBox_Add) refers to usercontrols_listbox.o(.bss) for .bss
    usercontrols_listbox.o(i.UserControls_ListBox_Clear) refers to usercontrols_listbox.o(.data) for .data
    usercontrols_listbox.o(i.UserControls_ListBox_Clear) refers to usercontrols_listbox.o(.bss) for .bss
    usercontrols_listbox.o(i.UserControls_ListBox_Draw) refers to lcd.o(i.GUI_FillRectEllipce) for GUI_FillRectEllipce
    usercontrols_listbox.o(i.UserControls_ListBox_Draw) refers to usercontrols_listbox.o(i.UserControls_ListBox_Item_Draw) for UserControls_ListBox_Item_Draw
    usercontrols_listbox.o(i.UserControls_ListBox_Draw) refers to usercontrols_listbox.o(.bss) for .bss
    usercontrols_listbox.o(i.UserControls_ListBox_GetText) refers to usercontrols_listbox.o(.bss) for .bss
    usercontrols_listbox.o(i.UserControls_ListBox_Handle) refers to usercontrols_listbox.o(i.UserControls_ListBox_PageItems) for UserControls_ListBox_PageItems
    usercontrols_listbox.o(i.UserControls_ListBox_Handle) refers to ili9481.o(i.LCD_FillRect) for LCD_FillRect
    usercontrols_listbox.o(i.UserControls_ListBox_Handle) refers to usercontrols_listbox.o(i.UserControls_ListBox_PrevPage) for UserControls_ListBox_PrevPage
    usercontrols_listbox.o(i.UserControls_ListBox_Handle) refers to usercontrols_listbox.o(i.UserControls_ListBox_NextPage) for UserControls_ListBox_NextPage
    usercontrols_listbox.o(i.UserControls_ListBox_Handle) refers to usercontrols_listbox.o(i.UserControls_ListBox_Item_Draw) for UserControls_ListBox_Item_Draw
    usercontrols_listbox.o(i.UserControls_ListBox_Handle) refers to usercontrols_listbox.o(.bss) for .bss
    usercontrols_listbox.o(i.UserControls_ListBox_Handle) refers to usercontrols_listbox.o(.data) for .data
    usercontrols_listbox.o(i.UserControls_ListBox_Item_Draw) refers to usercontrols_listbox.o(i.UserControls_ListBox_PageItems) for UserControls_ListBox_PageItems
    usercontrols_listbox.o(i.UserControls_ListBox_Item_Draw) refers to lcd.o(i.GUI_FillRectEllipce) for GUI_FillRectEllipce
    usercontrols_listbox.o(i.UserControls_ListBox_Item_Draw) refers to lcd.o(i.GUI_RectEllipce) for GUI_RectEllipce
    usercontrols_listbox.o(i.UserControls_ListBox_Item_Draw) refers to asciilib.o(i.SetFont) for SetFont
    usercontrols_listbox.o(i.UserControls_ListBox_Item_Draw) refers to lcd.o(i.GUI_Text) for GUI_Text
    usercontrols_listbox.o(i.UserControls_ListBox_Item_Draw) refers to usercontrols_listbox.o(.bss) for .bss
    usercontrols_listbox.o(i.UserControls_ListBox_Items_Add) refers to strlen.o(.text) for strlen
    usercontrols_listbox.o(i.UserControls_ListBox_Items_Add) refers to usercontrols_messagebox.o(i.MessageBox_Show) for MessageBox_Show
    usercontrols_listbox.o(i.UserControls_ListBox_Items_Add) refers to strcpy.o(.text) for strcpy
    usercontrols_listbox.o(i.UserControls_ListBox_Items_Add) refers to usercontrols_listbox.o(i.UserControls_ListBox_Item_Draw) for UserControls_ListBox_Item_Draw
    usercontrols_listbox.o(i.UserControls_ListBox_Items_Add) refers to usercontrols_listbox.o(.bss) for .bss
    usercontrols_listbox.o(i.UserControls_ListBox_NextPage) refers to usercontrols_listbox.o(i.UserControls_ListBox_PageCount) for UserControls_ListBox_PageCount
    usercontrols_listbox.o(i.UserControls_ListBox_NextPage) refers to usercontrols_listbox.o(i.UserControls_ListBox_Draw) for UserControls_ListBox_Draw
    usercontrols_listbox.o(i.UserControls_ListBox_NextPage) refers to usercontrols_listbox.o(.bss) for .bss
    usercontrols_listbox.o(i.UserControls_ListBox_PageCount) refers to usercontrols_listbox.o(.bss) for .bss
    usercontrols_listbox.o(i.UserControls_ListBox_PageItems) refers to usercontrols_listbox.o(.bss) for .bss
    usercontrols_listbox.o(i.UserControls_ListBox_PrevPage) refers to usercontrols_listbox.o(i.UserControls_ListBox_Draw) for UserControls_ListBox_Draw
    usercontrols_listbox.o(i.UserControls_ListBox_PrevPage) refers to usercontrols_listbox.o(.bss) for .bss
    usercontrols_messagebox.o(i.MessageBox_GetResult) refers to usercontrols_messagebox.o(.data) for .data
    usercontrols_messagebox.o(i.MessageBox_GetVisible) refers to usercontrols_messagebox.o(.data) for .data
    usercontrols_messagebox.o(i.MessageBox_Handle) refers to usercontrols_button.o(i.UserControls_Button_DrawSTDsize) for UserControls_Button_DrawSTDsize
    usercontrols_messagebox.o(i.MessageBox_Handle) refers to usercontrols_messagebox.o(i.MessageBox_Hide) for MessageBox_Hide
    usercontrols_messagebox.o(i.MessageBox_Handle) refers to usercontrols_messagebox.o(.data) for .data
    usercontrols_messagebox.o(i.MessageBox_Hide) refers to ili9481.o(i.LCD_Clear) for LCD_Clear
    usercontrols_messagebox.o(i.MessageBox_Hide) refers to usercontrols_messagebox.o(.data) for .data
    usercontrols_messagebox.o(i.MessageBox_ResetResult) refers to usercontrols_messagebox.o(.data) for .data
    usercontrols_messagebox.o(i.MessageBox_Show) refers to strlen.o(.text) for strlen
    usercontrols_messagebox.o(i.MessageBox_Show) refers to usercontrols_messagebox.o(i.MessageBox_Show_Procedure) for MessageBox_Show_Procedure
    usercontrols_messagebox.o(i.MessageBox_Show) refers to usercontrols_messagebox.o(.data) for .data
    usercontrols_messagebox.o(i.MessageBox_Show_Procedure) refers to ili9481.o(i.LCD_FillRect) for LCD_FillRect
    usercontrols_messagebox.o(i.MessageBox_Show_Procedure) refers to lcd.o(i.GUI_Line) for GUI_Line
    usercontrols_messagebox.o(i.MessageBox_Show_Procedure) refers to lcd.o(i.GUI_Text) for GUI_Text
    usercontrols_messagebox.o(i.MessageBox_Show_Procedure) refers to usercontrols_button.o(i.UserControls_Button_DrawSTDsize) for UserControls_Button_DrawSTDsize
    usercontrols_messagebox.o(i.MessageBox_Show_Procedure) refers to usercontrols_messagebox.o(.data) for .data
    usercontrols_radiobutton.o(i.UserControls_RadioButton_Add) refers to usercontrols_messagebox.o(i.MessageBox_Show) for MessageBox_Show
    usercontrols_radiobutton.o(i.UserControls_RadioButton_Add) refers to usercontrols_radiobutton.o(i.UserControls_RadioButton_Draw) for UserControls_RadioButton_Draw
    usercontrols_radiobutton.o(i.UserControls_RadioButton_Add) refers to usercontrols_radiobutton.o(.bss) for .bss
    usercontrols_radiobutton.o(i.UserControls_RadioButton_Add) refers to usercontrols_radiobutton.o(.data) for .data
    usercontrols_radiobutton.o(i.UserControls_RadioButton_Clear) refers to usercontrols_radiobutton.o(.data) for .data
    usercontrols_radiobutton.o(i.UserControls_RadioButton_Draw) refers to lcd.o(i.GUI_DrawImage) for GUI_DrawImage
    usercontrols_radiobutton.o(i.UserControls_RadioButton_Draw) refers to lcd.o(i.GUI_Text) for GUI_Text
    usercontrols_radiobutton.o(i.UserControls_RadioButton_Draw) refers to usercontrols_radiobutton.o(.constdata) for .constdata
    usercontrols_radiobutton.o(i.UserControls_RadioButton_GetDigitFromIndex) refers to atoi.o(.text) for atoi
    usercontrols_radiobutton.o(i.UserControls_RadioButton_GetDigitFromIndex) refers to usercontrols_radiobutton.o(.data) for .data
    usercontrols_radiobutton.o(i.UserControls_RadioButton_GetDigitFromIndex) refers to usercontrols_radiobutton.o(.bss) for .bss
    usercontrols_radiobutton.o(i.UserControls_RadioButton_GetTextFromIndex) refers to usercontrols_radiobutton.o(.data) for .data
    usercontrols_radiobutton.o(i.UserControls_RadioButton_GetTextFromIndex) refers to usercontrols_radiobutton.o(.bss) for .bss
    usercontrols_radiobutton.o(i.UserControls_RadioButton_Handle) refers to usercontrols_radiobutton.o(i._getNum) for _getNum
    usercontrols_radiobutton.o(i.UserControls_RadioButton_Handle) refers to usercontrols_radiobutton.o(i._refresh) for _refresh
    usercontrols_radiobutton.o(i.UserControls_RadioButton_Handle) refers to usercontrols_radiobutton.o(.bss) for .bss
    usercontrols_radiobutton.o(i.UserControls_RadioButton_Set) refers to usercontrols_messagebox.o(i.MessageBox_Show) for MessageBox_Show
    usercontrols_radiobutton.o(i.UserControls_RadioButton_Set) refers to usercontrols_radiobutton.o(.bss) for .bss
    usercontrols_radiobutton.o(i._getNum) refers to strlen.o(.text) for strlen
    usercontrols_radiobutton.o(i._getNum) refers to usercontrols_radiobutton.o(.data) for .data
    usercontrols_radiobutton.o(i._getNum) refers to usercontrols_radiobutton.o(.bss) for .bss
    usercontrols_radiobutton.o(i._refresh) refers to usercontrols_radiobutton.o(i.UserControls_RadioButton_Draw) for UserControls_RadioButton_Draw
    usercontrols_radiobutton.o(i._refresh) refers to usercontrols_radiobutton.o(.data) for .data
    usercontrols_radiobutton.o(i._refresh) refers to usercontrols_radiobutton.o(.bss) for .bss
    usercontrols_valueregulator.o(i.UserControls_ValueRegulator_Add) refers to usercontrols_valueregulator.o(i.UserControls_ValueRegulator_Draw) for UserControls_ValueRegulator_Draw
    usercontrols_valueregulator.o(i.UserControls_ValueRegulator_Add) refers to usercontrols_messagebox.o(i.MessageBox_Show) for MessageBox_Show
    usercontrols_valueregulator.o(i.UserControls_ValueRegulator_Add) refers to usercontrols_valueregulator.o(.data) for .data
    usercontrols_valueregulator.o(i.UserControls_ValueRegulator_Add) refers to usercontrols_valueregulator.o(.bss) for .bss
    usercontrols_valueregulator.o(i.UserControls_ValueRegulator_Clear) refers to usercontrols_valueregulator.o(.data) for .data
    usercontrols_valueregulator.o(i.UserControls_ValueRegulator_Draw) refers to printf6.o(i.__0sprintf$6) for __2sprintf
    usercontrols_valueregulator.o(i.UserControls_ValueRegulator_Draw) refers to strlen.o(.text) for strlen
    usercontrols_valueregulator.o(i.UserControls_ValueRegulator_Draw) refers to lcd.o(i.GUI_FillRectEllipce) for GUI_FillRectEllipce
    usercontrols_valueregulator.o(i.UserControls_ValueRegulator_Draw) refers to lcd.o(i.GUI_RectEllipce) for GUI_RectEllipce
    usercontrols_valueregulator.o(i.UserControls_ValueRegulator_Draw) refers to usercontrols_button.o(i.UserControls_Button_Draw) for UserControls_Button_Draw
    usercontrols_valueregulator.o(i.UserControls_ValueRegulator_Draw) refers to lcd.o(i.GUI_Text) for GUI_Text
    usercontrols_valueregulator.o(i.UserControls_ValueRegulator_Draw) refers to usercontrols_valueregulator.o(.bss) for .bss
    usercontrols_valueregulator.o(i.UserControls_ValueRegulator_Draw) refers to usercontrols_valueregulator.o(.data) for .data
    usercontrols_valueregulator.o(i.UserControls_ValueRegulator_Handle) refers to usercontrols_valueregulator.o(i.UserControls_ValueRegulator_Draw) for UserControls_ValueRegulator_Draw
    usercontrols_valueregulator.o(i.UserControls_ValueRegulator_Handle) refers to usercontrols_valueregulator.o(.data) for .data
    usercontrols_valueregulator.o(i.UserControls_ValueRegulator_Handle) refers to usercontrols_valueregulator.o(.bss) for .bss
    flash.o(i.FlashFirmware) refers to diskio.o(i.disk_initialize) for disk_initialize
    flash.o(i.FlashFirmware) refers to ff.o(i.f_mount) for f_mount
    flash.o(i.FlashFirmware) refers to ff.o(i.f_open) for f_open
    flash.o(i.FlashFirmware) refers to ff.o(i.f_read) for f_read
    flash.o(i.FlashFirmware) refers to ff.o(i.f_close) for f_close
    flash.o(i.FlashFirmware) refers to stm32f4xx_flash.o(i.FLASH_Unlock) for FLASH_Unlock
    flash.o(i.FlashFirmware) refers to stm32f4xx_flash.o(i.FLASH_ClearFlag) for FLASH_ClearFlag
    flash.o(i.FlashFirmware) refers to flash.o(i.GetSector) for GetSector
    flash.o(i.FlashFirmware) refers to stm32f4xx_flash.o(i.FLASH_EraseSector) for FLASH_EraseSector
    flash.o(i.FlashFirmware) refers to stm32f4xx_flash.o(i.FLASH_ProgramWord) for FLASH_ProgramWord
    flash.o(i.FlashFirmware) refers to flash.o(.data) for .data
    flash.o(i.FlashFirmware) refers to sduser.o(.bss) for fs
    flash.o(i.FlashFirmware) refers to sduser.o(.bss) for fsrc
    flash.o(i.FlashFirmware) refers to sduser.o(.data) for res
    flash.o(i.FlashFirmware) refers to ili9481.o(i.LCD_Initialization) for LCD_Initialization
    flash.o(i.FlashFirmware) refers to ili9481.o(i.LCD_Clear) for LCD_Clear
    flash.o(i.FlashFirmware) refers to ili9481.o(i.LCD_FillRect) for LCD_FillRect
    flash.o(i.FlashFirmware) refers to ili9481.o(i.LCD_SetPoint) for LCD_SetPoint
    flash.o(i.FlashFirmware) refers to ili9481.o(i.LCD_GetPoint) for LCD_GetPoint
    flash.o(i.FlashFirmware) refers to ili9481.o(i.LCD_HardwareScroll) for LCD_HardwareScroll
    flash.o(i.FlashFirmware) refers to ili9481.o(i.LCD_HardwareScroll_Position) for LCD_HardwareScroll_Position
    flash.o(i.FlashFirmware) refers to ili9481.o(i.LCD_HardwareScroll_Position_Reset) for LCD_HardwareScroll_Position_Reset
    flash.o(i.FlashFirmware) refers to ili9481.o(i.LCD_WriteIndex) for LCD_WriteIndex
    flash.o(i.FlashFirmware) refers to ili9481.o(i.LCD_WriteData) for LCD_WriteData
    flash.o(i.FlashFirmware) refers to ili9481.o(i.LCD_WriteReg) for LCD_WriteReg
    flash.o(i.FlashFirmware) refers to ili9481.o(i.LCD_ReadData) for LCD_ReadData
    flash.o(i.FlashFirmware) refers to ili9481.o(i.LCD_ReadReg) for LCD_ReadReg
    flash.o(i.FlashFirmware) refers to ili9481.o(i.LCD_SetCursor) for LCD_SetCursor
    flash.o(i.FlashFirmware) refers to ili9481.o(i.LCD_Enter_Sleep_Mode) for LCD_Enter_Sleep_Mode
    flash.o(i.FlashFirmware) refers to ili9481.o(i.LCD_Exit_Sleep_Mode) for LCD_Exit_Sleep_Mode
    flash.o(i.FlashFirmware) refers to ili9481.o(i.LCD_Enter_Normal_Mode) for LCD_Enter_Normal_Mode
    flash.o(i.FlashFirmware) refers to ili9481.o(i.LCD_Enter_Invert_Mode) for LCD_Enter_Invert_Mode
    flash.o(i.FlashFirmware) refers to ili9481.o(i.LCD_Exit_Invert_Mode) for LCD_Exit_Invert_Mode
    flash.o(i.FlashFirmware) refers to ili9481.o(i.LCD_ON) for LCD_ON
    flash.o(i.FlashFirmware) refers to ili9481.o(i.LCD_OFF) for LCD_OFF
    flash.o(i.FlashFirmware) refers to ili9481.o(i.LCD_Hardware_InvertMode_On) for LCD_Hardware_InvertMode_On
    flash.o(i.FlashFirmware) refers to ili9481.o(i.LCD_Hardware_InvertMode_Off) for LCD_Hardware_InvertMode_Off
    flash.o(i.FlashFirmware) refers to ili9481.o(i.LCD_Led_On) for LCD_Led_On
    flash.o(i.FlashFirmware) refers to ili9481.o(i.LCD_Led_Off) for LCD_Led_Off
    flash.o(i.FlashFirmware) refers to lcd.o(i.GUI_DrawImage) for GUI_DrawImage
    flash.o(i.FlashFirmware) refers to lcd.o(i.GUI_DrawInvertImage) for GUI_DrawInvertImage
    flash.o(i.FlashFirmware) refers to lcd.o(i.GUI_DrawImageWithReplace) for GUI_DrawImageWithReplace
    flash.o(i.FlashFirmware) refers to lcd.o(i.GUI_DrawImage_SD) for GUI_DrawImage_SD
    flash.o(i.FlashFirmware) refers to lcd.o(i.GUI_DrawInvertImage_SD) for GUI_DrawInvertImage_SD
    flash.o(i.FlashFirmware) refers to lcd.o(i.GUI_DrawImageWithReplace_SD) for GUI_DrawImageWithReplace_SD
    flash.o(i.FlashFirmware) refers to lcd.o(i.GUI_SmartClear) for GUI_SmartClear
    flash.o(i.FlashFirmware) refers to lcd.o(i.GUI_PutChar) for GUI_PutChar
    flash.o(i.FlashFirmware) refers to lcd.o(i.GUI_Text) for GUI_Text
    flash.o(i.FlashFirmware) refers to lcd.o(i.GUI_Line) for GUI_Line
    flash.o(i.FlashFirmware) refers to lcd.o(i.GUI_Circle) for GUI_Circle
    flash.o(i.FlashFirmware) refers to lcd.o(i.GUI_Rect) for GUI_Rect
    flash.o(i.FlashFirmware) refers to lcd.o(i.GUI_RectEllipce) for GUI_RectEllipce
    flash.o(i.FlashFirmware) refers to lcd.o(i.GUI_FillRectEllipce) for GUI_FillRectEllipce
    flash.o(i.FlashFirmware) refers to lcd.o(i.GUI_FillCircle) for GUI_FillCircle
    flash.o(i.FlashFirmware) refers to diskio.o(i.disk_status) for disk_status
    flash.o(i.FlashFirmware) refers to diskio.o(i.disk_read) for disk_read
    flash.o(i.FlashFirmware) refers to diskio.o(i.disk_write) for disk_write
    flash.o(i.FlashFirmware) refers to diskio.o(i.disk_ioctl) for disk_ioctl
    flash.o(i.FlashFirmware) refers to ff.o(i.f_lseek) for f_lseek
    flash.o(i.FlashFirmware) refers to ff.o(i.f_opendir) for f_opendir
    flash.o(i.FlashFirmware) refers to ff.o(i.f_readdir) for f_readdir
    flash.o(i.FlashFirmware) refers to ff.o(i.f_stat) for f_stat
    flash.o(i.FlashFirmware) refers to ff.o(i.f_write) for f_write
    flash.o(i.FlashFirmware) refers to ff.o(i.f_getfree) for f_getfree
    flash.o(i.FlashFirmware) refers to ff.o(i.f_truncate) for f_truncate
    flash.o(i.FlashFirmware) refers to ff.o(i.f_sync) for f_sync
    flash.o(i.FlashFirmware) refers to ff.o(i.f_unlink) for f_unlink
    flash.o(i.FlashFirmware) refers to ff.o(i.f_mkdir) for f_mkdir
    flash.o(i.FlashFirmware) refers to ff.o(i.f_chmod) for f_chmod
    flash.o(i.FlashFirmware) refers to ff.o(i.f_utime) for f_utime
    flash.o(i.FlashFirmware) refers to ff.o(i.f_rename) for f_rename
    flash.o(i.FlashFirmware) refers to ff.o(i.f_mkfs) for f_mkfs
    flash.o(i.FlashFirmware) refers to ff.o(i.f_putc) for f_putc
    flash.o(i.FlashFirmware) refers to ff.o(i.f_puts) for f_puts
    flash.o(i.FlashFirmware) refers to ff.o(i.f_printf) for f_printf
    flash.o(i.FlashFirmware) refers to ff.o(i.f_gets) for f_gets
    flash.o(i.FlashFirmware) refers to touchpanel.o(i.TP_Init) for TP_Init
    flash.o(i.FlashFirmware) refers to touchpanel.o(i.Read_Ads7846) for Read_Ads7846
    flash.o(i.FlashFirmware) refers to touchpanel.o(i.TouchPanel_Calibrate) for TouchPanel_Calibrate
    flash.o(i.FlashFirmware) refers to stm32f4xx_flash.o(i.FLASH_Lock) for FLASH_Lock
    flash.o(i.FlashFirmware) refers to touchpanel.o(i.DrawCross) for DrawCross
    flash.o(i.FlashFirmware) refers to touchpanel.o(i.TP_DrawPoint) for TP_DrawPoint
    flash.o(i.FlashFirmware) refers to touchpanel.o(i.Read_Bat) for Read_Bat
    flash.o(i.FlashFirmware) refers to touchpanel.o(i.TP_SwitchOff) for TP_SwitchOff
    flash.o(i.FlashFirmware) refers to touchpanel.o(i.setCalibrationMatrix) for setCalibrationMatrix
    flash.o(i.FlashFirmware) refers to touchpanel.o(i.getDisplayPoint) for getDisplayPoint
    flash.o(i.FlashFirmware) refers to usercontrols_button.o(i.UserControls_Button_Add) for UserControls_Button_Add
    flash.o(i.FlashFirmware) refers to usercontrols_button.o(i.UserControls_Button_SizeOffset) for UserControls_Button_SizeOffset
    flash.o(i.FlashFirmware) refers to usercontrols_button.o(i.UserControls_Button_RedrawAll) for UserControls_Button_RedrawAll
    flash.o(i.FlashFirmware) refers to usercontrols_button.o(i.UserControls_Button_RedrawControls) for UserControls_Button_RedrawControls
    flash.o(i.FlashFirmware) refers to usercontrols_button.o(i.UserControls_Button_Clear) for UserControls_Button_Clear
    flash.o(i.FlashFirmware) refers to usercontrols_button.o(i.UserControls_Button_Handle) for UserControls_Button_Handle
    flash.o(i.FlashFirmware) refers to usercontrols_button.o(i.UserControls_Button_GetControl) for UserControls_Button_GetControl
    flash.o(i.FlashFirmware) refers to usercontrols_button.o(i.UserControls_Button_GetLastControl) for UserControls_Button_GetLastControl
    flash.o(i.FlashFirmware) refers to usercontrols_button.o(i.UserControls_Button_Draw) for UserControls_Button_Draw
    flash.o(i.FlashFirmware) refers to usercontrols_checkbox.o(i.UserControls_CheckBox_Add) for UserControls_CheckBox_Add
    flash.o(i.FlashFirmware) refers to usercontrols_checkbox.o(i.UserControls_CheckBox_Clear) for UserControls_CheckBox_Clear
    flash.o(i.FlashFirmware) refers to usercontrols_checkbox.o(i.UserControls_CheckBox_Handle) for UserControls_CheckBox_Handle
    flash.o(i.FlashFirmware) refers to usercontrols_checkbox.o(i.UserControls_CheckBox_Get) for UserControls_CheckBox_Get
    flash.o(i.FlashFirmware) refers to usercontrols_checkbox.o(i.UserControls_CheckBox_Draw) for UserControls_CheckBox_Draw
    flash.o(i.FlashFirmware) refers to usercontrols_listbox.o(i.UserControls_ListBox_Add) for UserControls_ListBox_Add
    flash.o(i.FlashFirmware) refers to usercontrols_listbox.o(i.UserControls_ListBox_Item_Draw) for UserControls_ListBox_Item_Draw
    flash.o(i.FlashFirmware) refers to usercontrols_listbox.o(i.UserControls_ListBox_Handle) for UserControls_ListBox_Handle
    flash.o(i.FlashFirmware) refers to usercontrols_listbox.o(i.UserControls_ListBox_Items_Add) for UserControls_ListBox_Items_Add
    flash.o(i.FlashFirmware) refers to usercontrols_listbox.o(i.UserControls_ListBox_Draw) for UserControls_ListBox_Draw
    flash.o(i.FlashFirmware) refers to usercontrols_listbox.o(i.UserControls_ListBox_GetText) for UserControls_ListBox_GetText
    flash.o(i.FlashFirmware) refers to usercontrols_listbox.o(i.UserControls_ListBox_Clear) for UserControls_ListBox_Clear
    flash.o(i.FlashFirmware) refers to usercontrols_messagebox.o(i.MessageBox_GetVisible) for MessageBox_GetVisible
    flash.o(i.FlashFirmware) refers to usercontrols_messagebox.o(i.MessageBox_GetResult) for MessageBox_GetResult
    flash.o(i.FlashFirmware) refers to usercontrols_messagebox.o(i.MessageBox_ResetResult) for MessageBox_ResetResult
    flash.o(i.FlashFirmware) refers to usercontrols_messagebox.o(i.MessageBox_Handle) for MessageBox_Handle
    flash.o(i.FlashFirmware) refers to usercontrols_messagebox.o(i.MessageBox_Show_Procedure) for MessageBox_Show_Procedure
    flash.o(i.FlashFirmware) refers to usercontrols_messagebox.o(i.MessageBox_Show) for MessageBox_Show
    flash.o(i.FlashFirmware) refers to usercontrols_messagebox.o(i.MessageBox_Hide) for MessageBox_Hide
    flash.o(i.FlashFirmware) refers to usercontrols_radiobutton.o(i.UserControls_RadioButton_Add) for UserControls_RadioButton_Add
    flash.o(i.FlashFirmware) refers to usercontrols_radiobutton.o(i.UserControls_RadioButton_Set) for UserControls_RadioButton_Set
    flash.o(i.FlashFirmware) refers to usercontrols_radiobutton.o(i.UserControls_RadioButton_Clear) for UserControls_RadioButton_Clear
    flash.o(i.FlashFirmware) refers to usercontrols_radiobutton.o(i.UserControls_RadioButton_Draw) for UserControls_RadioButton_Draw
    flash.o(i.FlashFirmware) refers to usercontrols_radiobutton.o(i.UserControls_RadioButton_Handle) for UserControls_RadioButton_Handle
    flash.o(i.FlashFirmware) refers to usercontrols_radiobutton.o(i.UserControls_RadioButton_GetTextFromIndex) for UserControls_RadioButton_GetTextFromIndex
    flash.o(i.FlashFirmware) refers to usercontrols_radiobutton.o(i.UserControls_RadioButton_GetDigitFromIndex) for UserControls_RadioButton_GetDigitFromIndex
    flash.o(i.FlashFirmware) refers to usercontrols_valueregulator.o(i.UserControls_ValueRegulator_Add) for UserControls_ValueRegulator_Add
    flash.o(i.FlashFirmware) refers to usercontrols_valueregulator.o(i.UserControls_ValueRegulator_Clear) for UserControls_ValueRegulator_Clear
    flash.o(i.FlashFirmware) refers to usercontrols_valueregulator.o(i.UserControls_ValueRegulator_Handle) for UserControls_ValueRegulator_Handle
    flash.o(i.FlashFirmware) refers to usercontrols_valueregulator.o(i.UserControls_ValueRegulator_Draw) for UserControls_ValueRegulator_Draw
    touchpanel.o(i.DrawCross) refers to lcd.o(i.GUI_Line) for GUI_Line
    touchpanel.o(i.LoadCalibrate) refers to ff.o(i.f_open) for f_open
    touchpanel.o(i.LoadCalibrate) refers to usercontrols_messagebox.o(i.MessageBox_Show) for MessageBox_Show
    touchpanel.o(i.LoadCalibrate) refers to ff.o(i.f_read) for f_read
    touchpanel.o(i.LoadCalibrate) refers to ff.o(i.f_close) for f_close
    touchpanel.o(i.LoadCalibrate) refers to cdcmple.o(.text) for __aeabi_cdcmpeq
    touchpanel.o(i.LoadCalibrate) refers to atof.o(i.atof) for atof
    touchpanel.o(i.LoadCalibrate) refers to sduser.o(.bss) for fsrc
    touchpanel.o(i.LoadCalibrate) refers to touchpanel.o(.bss) for .bss
    touchpanel.o(i.RD_AD) refers to stm32f4xx_spi.o(i.SPI_I2S_GetFlagStatus) for SPI_I2S_GetFlagStatus
    touchpanel.o(i.RD_AD) refers to stm32f4xx_spi.o(i.SPI_I2S_SendData) for SPI_I2S_SendData
    touchpanel.o(i.RD_AD) refers to stm32f4xx_spi.o(i.SPI_I2S_ReceiveData) for SPI_I2S_ReceiveData
    touchpanel.o(i.RD_AD) refers to touchpanel.o(i.DelayUS) for DelayUS
    touchpanel.o(i.Read_Ads7846) refers to memseta.o(.text) for __aeabi_memclr4
    touchpanel.o(i.Read_Ads7846) refers to touchpanel.o(i.TP_GetAdXY) for TP_GetAdXY
    touchpanel.o(i.Read_Ads7846) refers to stm32f4xx_gpio.o(i.GPIO_ReadInputDataBit) for GPIO_ReadInputDataBit
    touchpanel.o(i.Read_Ads7846) refers to touchpanel.o(.data) for .data
    touchpanel.o(i.Read_Bat) refers to stm32f4xx_gpio.o(i.GPIO_ResetBits) for GPIO_ResetBits
    touchpanel.o(i.Read_Bat) refers to touchpanel.o(i.DelayUS) for DelayUS
    touchpanel.o(i.Read_Bat) refers to touchpanel.o(i.WR_CMD) for WR_CMD
    touchpanel.o(i.Read_Bat) refers to touchpanel.o(i.RD_AD) for RD_AD
    touchpanel.o(i.Read_Bat) refers to stm32f4xx_gpio.o(i.GPIO_SetBits) for GPIO_SetBits
    touchpanel.o(i.Read_X) refers to stm32f4xx_gpio.o(i.GPIO_ResetBits) for GPIO_ResetBits
    touchpanel.o(i.Read_X) refers to touchpanel.o(i.DelayUS) for DelayUS
    touchpanel.o(i.Read_X) refers to touchpanel.o(i.WR_CMD) for WR_CMD
    touchpanel.o(i.Read_X) refers to touchpanel.o(i.RD_AD) for RD_AD
    touchpanel.o(i.Read_X) refers to stm32f4xx_gpio.o(i.GPIO_SetBits) for GPIO_SetBits
    touchpanel.o(i.Read_Y) refers to stm32f4xx_gpio.o(i.GPIO_ResetBits) for GPIO_ResetBits
    touchpanel.o(i.Read_Y) refers to touchpanel.o(i.DelayUS) for DelayUS
    touchpanel.o(i.Read_Y) refers to touchpanel.o(i.WR_CMD) for WR_CMD
    touchpanel.o(i.Read_Y) refers to touchpanel.o(i.RD_AD) for RD_AD
    touchpanel.o(i.Read_Y) refers to stm32f4xx_gpio.o(i.GPIO_SetBits) for GPIO_SetBits
    touchpanel.o(i.SaveCalibrate) refers to ff.o(i.f_open) for f_open
    touchpanel.o(i.SaveCalibrate) refers to dfixi.o(.text) for __aeabi_d2iz
    touchpanel.o(i.SaveCalibrate) refers to dflti.o(.text) for __aeabi_i2d
    touchpanel.o(i.SaveCalibrate) refers to dadd.o(.text) for __aeabi_drsub
    touchpanel.o(i.SaveCalibrate) refers to dmul.o(.text) for __aeabi_dmul
    touchpanel.o(i.SaveCalibrate) refers to ff.o(i.f_printf) for f_printf
    touchpanel.o(i.SaveCalibrate) refers to ff.o(i.f_close) for f_close
    touchpanel.o(i.SaveCalibrate) refers to sduser.o(.bss) for fsrc
    touchpanel.o(i.SaveCalibrate) refers to touchpanel.o(.bss) for .bss
    touchpanel.o(i.TP_DrawPoint) refers to ili9481.o(i.LCD_SetPoint) for LCD_SetPoint
    touchpanel.o(i.TP_GetAdXY) refers to touchpanel.o(i.Read_X) for Read_X
    touchpanel.o(i.TP_GetAdXY) refers to touchpanel.o(i.DelayUS) for DelayUS
    touchpanel.o(i.TP_GetAdXY) refers to touchpanel.o(i.Read_Y) for Read_Y
    touchpanel.o(i.TP_Init) refers to stm32f4xx_rcc.o(i.RCC_AHB1PeriphClockCmd) for RCC_AHB1PeriphClockCmd
    touchpanel.o(i.TP_Init) refers to stm32f4xx_rcc.o(i.RCC_APB1PeriphClockCmd) for RCC_APB1PeriphClockCmd
    touchpanel.o(i.TP_Init) refers to stm32f4xx_gpio.o(i.GPIO_PinAFConfig) for GPIO_PinAFConfig
    touchpanel.o(i.TP_Init) refers to stm32f4xx_gpio.o(i.GPIO_Init) for GPIO_Init
    touchpanel.o(i.TP_Init) refers to stm32f4xx_gpio.o(i.GPIO_SetBits) for GPIO_SetBits
    touchpanel.o(i.TP_Init) refers to stm32f4xx_spi.o(i.SPI_I2S_DeInit) for SPI_I2S_DeInit
    touchpanel.o(i.TP_Init) refers to stm32f4xx_spi.o(i.SPI_Init) for SPI_Init
    touchpanel.o(i.TP_Init) refers to stm32f4xx_spi.o(i.SPI_Cmd) for SPI_Cmd
    touchpanel.o(i.TP_Init) refers to touchpanel.o(i.LoadCalibrate) for LoadCalibrate
    touchpanel.o(i.TP_Init) refers to touchpanel.o(i.TouchPanel_Calibrate) for TouchPanel_Calibrate
    touchpanel.o(i.TP_SwitchOff) refers to stm32f4xx_gpio.o(i.GPIO_ResetBits) for GPIO_ResetBits
    touchpanel.o(i.TP_SwitchOff) refers to touchpanel.o(i.DelayUS) for DelayUS
    touchpanel.o(i.TP_SwitchOff) refers to touchpanel.o(i.WR_CMD) for WR_CMD
    touchpanel.o(i.TP_SwitchOff) refers to stm32f4xx_gpio.o(i.GPIO_SetBits) for GPIO_SetBits
    touchpanel.o(i.TouchPanel_Calibrate) refers to ili9481.o(i.LCD_Clear) for LCD_Clear
    touchpanel.o(i.TouchPanel_Calibrate) refers to lcd.o(i.GUI_Text) for GUI_Text
    touchpanel.o(i.TouchPanel_Calibrate) refers to touchpanel.o(i.DrawCross) for DrawCross
    touchpanel.o(i.TouchPanel_Calibrate) refers to touchpanel.o(i.Read_Ads7846) for Read_Ads7846
    touchpanel.o(i.TouchPanel_Calibrate) refers to touchpanel.o(i.setCalibrationMatrix) for setCalibrationMatrix
    touchpanel.o(i.TouchPanel_Calibrate) refers to touchpanel.o(i.SaveCalibrate) for SaveCalibrate
    touchpanel.o(i.TouchPanel_Calibrate) refers to touchpanel.o(.data) for .data
    touchpanel.o(i.TouchPanel_Calibrate) refers to touchpanel.o(.bss) for .bss
    touchpanel.o(i.WR_CMD) refers to stm32f4xx_spi.o(i.SPI_I2S_GetFlagStatus) for SPI_I2S_GetFlagStatus
    touchpanel.o(i.WR_CMD) refers to stm32f4xx_spi.o(i.SPI_I2S_SendData) for SPI_I2S_SendData
    touchpanel.o(i.WR_CMD) refers to stm32f4xx_spi.o(i.SPI_I2S_ReceiveData) for SPI_I2S_ReceiveData
    touchpanel.o(i.getDisplayPoint) refers to cdcmple.o(.text) for __aeabi_cdcmpeq
    touchpanel.o(i.getDisplayPoint) refers to touchpanel.o(i.DelayUS) for DelayUS
    touchpanel.o(i.getDisplayPoint) refers to dfltui.o(.text) for __aeabi_ui2d
    touchpanel.o(i.getDisplayPoint) refers to dmul.o(.text) for __aeabi_dmul
    touchpanel.o(i.getDisplayPoint) refers to dadd.o(.text) for __aeabi_dadd
    touchpanel.o(i.getDisplayPoint) refers to ddiv.o(.text) for __aeabi_ddiv
    touchpanel.o(i.getDisplayPoint) refers to dfixui.o(.text) for __aeabi_d2uiz
    touchpanel.o(i.setCalibrationMatrix) refers to dflti.o(.text) for __aeabi_i2d
    touchpanel.o(i.setCalibrationMatrix) refers to cdcmple.o(.text) for __aeabi_cdcmpeq
    core.o(i.CORE_DownloadCoreTable) refers to stm32f4xx_flash.o(i.FLASH_Unlock) for FLASH_Unlock
    core.o(i.CORE_DownloadCoreTable) refers to stm32f4xx_flash.o(i.FLASH_ClearFlag) for FLASH_ClearFlag
    core.o(i.CORE_DownloadCoreTable) refers to flash.o(i.GetSector) for GetSector
    core.o(i.CORE_DownloadCoreTable) refers to stm32f4xx_flash.o(i.FLASH_EraseSector) for FLASH_EraseSector
    core.o(i.CORE_DownloadCoreTable) refers to core.o(.data) for .data
    formmanager.o(i.DrawClock) refers to rtc_time.o(i.Clock_GetTime) for Clock_GetTime
    formmanager.o(i.DrawClock) refers to touchpanel.o(i.Read_Bat) for Read_Bat
    formmanager.o(i.DrawClock) refers to ili9481.o(i.LCD_FillRect) for LCD_FillRect
    formmanager.o(i.DrawClock) refers to lcd.o(i.GUI_Rect) for GUI_Rect
    formmanager.o(i.DrawClock) refers to lcd.o(i.GUI_Text) for GUI_Text
    formmanager.o(i.DrawClock) refers to formmanager.o(.data) for .data
    formmanager.o(i.Form_Handle) refers to stm32f4xx_gpio.o(i.GPIO_ReadInputDataBit) for GPIO_ReadInputDataBit
    formmanager.o(i.Form_Handle) refers to touchpanel.o(i.Read_Ads7846) for Read_Ads7846
    formmanager.o(i.Form_Handle) refers to touchpanel.o(i.getDisplayPoint) for getDisplayPoint
    formmanager.o(i.Form_Handle) refers to usercontrols_messagebox.o(i.MessageBox_GetVisible) for MessageBox_GetVisible
    formmanager.o(i.Form_Handle) refers to usercontrols_messagebox.o(i.MessageBox_Handle) for MessageBox_Handle
    formmanager.o(i.Form_Handle) refers to usercontrols_listbox.o(i.UserControls_ListBox_Handle) for UserControls_ListBox_Handle
    formmanager.o(i.Form_Handle) refers to usercontrols_listbox.o(i.UserControls_ListBox_Active) for UserControls_ListBox_Active
    formmanager.o(i.Form_Handle) refers to usercontrols_button.o(i.UserControls_Button_Handle) for UserControls_Button_Handle
    formmanager.o(i.Form_Handle) refers to usercontrols_valueregulator.o(i.UserControls_ValueRegulator_Handle) for UserControls_ValueRegulator_Handle
    formmanager.o(i.Form_Handle) refers to formmanager.o(.data) for .data
    formmanager.o(i.Form_Handle) refers to touchpanel.o(.data) for display
    formmanager.o(i.Form_Handle) refers to touchpanel.o(.bss) for matrix
    formmanager.o(i.Form_Show) refers to formmanager.o(i._Form_Menu_Show) for _Form_Menu_Show
    formmanager.o(i.Form_Show) refers to formmanager.o(i._Form_Main_Show) for _Form_Main_Show
    formmanager.o(i.Form_Show) refers to formmanager.o(.data) for .data
    formmanager.o(i.Get_Select_Form) refers to formmanager.o(.data) for .data
    formmanager.o(i._Form_Main_Show) refers to ili9481.o(i.LCD_Led_Off) for LCD_Led_Off
    formmanager.o(i._Form_Main_Show) refers to usercontrols_button.o(i.UserControls_Button_Clear) for UserControls_Button_Clear
    formmanager.o(i._Form_Main_Show) refers to usercontrols_radiobutton.o(i.UserControls_RadioButton_Clear) for UserControls_RadioButton_Clear
    formmanager.o(i._Form_Main_Show) refers to usercontrols_valueregulator.o(i.UserControls_ValueRegulator_Clear) for UserControls_ValueRegulator_Clear
    formmanager.o(i._Form_Main_Show) refers to usercontrols_checkbox.o(i.UserControls_CheckBox_Clear) for UserControls_CheckBox_Clear
    formmanager.o(i._Form_Main_Show) refers to usercontrols_listbox.o(i.UserControls_ListBox_Clear) for UserControls_ListBox_Clear
    formmanager.o(i._Form_Main_Show) refers to ili9481.o(i.LCD_Clear) for LCD_Clear
    formmanager.o(i._Form_Main_Show) refers to lcd.o(i.GUI_DrawImage_SD) for GUI_DrawImage_SD
    formmanager.o(i._Form_Main_Show) refers to lcd.o(i.GUI_Text) for GUI_Text
    formmanager.o(i._Form_Main_Show) refers to usercontrols_listbox.o(i.UserControls_ListBox_Add) for UserControls_ListBox_Add
    formmanager.o(i._Form_Main_Show) refers to usercontrols_button.o(i.UserControls_Button_AddWithSize) for UserControls_Button_AddWithSize
    formmanager.o(i._Form_Main_Show) refers to sduser.o(i.scan_programs) for scan_programs
    formmanager.o(i._Form_Main_Show) refers to formmanager.o(i.DrawClock) for DrawClock
    formmanager.o(i._Form_Main_Show) refers to ili9481.o(i.LCD_Led_On) for LCD_Led_On
    formmanager.o(i._Form_Main_Show) refers to system_stm32f4xx.o(.data) for SystemCoreClock
    formmanager.o(i._Form_Main_Show) refers to formmanager.o(.data) for .data
    formmanager.o(i._Form_Main_Show) refers to formmanager.o(i._loadPrevious) for _loadPrevious
    formmanager.o(i._Form_Main_Show) refers to formmanager.o(i._btnStart) for _btnStart
    formmanager.o(i._Form_Main_Show) refers to pwr.o(i.PWR_GoToSleep) for PWR_GoToSleep
    formmanager.o(i._Form_Main_Show) refers to formmanager.o(i._Form_Menu_Show) for _Form_Menu_Show
    formmanager.o(i._Form_Menu_Show) refers to usercontrols_button.o(i.UserControls_Button_Clear) for UserControls_Button_Clear
    formmanager.o(i._Form_Menu_Show) refers to usercontrols_radiobutton.o(i.UserControls_RadioButton_Clear) for UserControls_RadioButton_Clear
    formmanager.o(i._Form_Menu_Show) refers to usercontrols_valueregulator.o(i.UserControls_ValueRegulator_Clear) for UserControls_ValueRegulator_Clear
    formmanager.o(i._Form_Menu_Show) refers to usercontrols_checkbox.o(i.UserControls_CheckBox_Clear) for UserControls_CheckBox_Clear
    formmanager.o(i._Form_Menu_Show) refers to usercontrols_listbox.o(i.UserControls_ListBox_Clear) for UserControls_ListBox_Clear
    formmanager.o(i._Form_Menu_Show) refers to lcd.o(i.GUI_SmartClear) for GUI_SmartClear
    formmanager.o(i._Form_Menu_Show) refers to usercontrols_button.o(i.UserControls_Button_AddWithSize) for UserControls_Button_AddWithSize
    formmanager.o(i._Form_Menu_Show) refers to rtc_time.o(i.Clock_GetTime) for Clock_GetTime
    formmanager.o(i._Form_Menu_Show) refers to usercontrols_valueregulator.o(i.UserControls_ValueRegulator_Add) for UserControls_ValueRegulator_Add
    formmanager.o(i._Form_Menu_Show) refers to lcd.o(i.GUI_RectEllipce) for GUI_RectEllipce
    formmanager.o(i._Form_Menu_Show) refers to lcd.o(i.GUI_Line) for GUI_Line
    formmanager.o(i._Form_Menu_Show) refers to lcd.o(i.GUI_Text) for GUI_Text
    formmanager.o(i._Form_Menu_Show) refers to formmanager.o(.data) for .data
    formmanager.o(i._Form_Menu_Show) refers to touchpanel.o(i.TouchPanel_Calibrate) for TouchPanel_Calibrate
    formmanager.o(i._Form_Menu_Show) refers to pwr.o(i.PWR_GoToSleep) for PWR_GoToSleep
    formmanager.o(i._Form_Menu_Show) refers to formmanager.o(i._Form_Main_Show) for _Form_Main_Show
    formmanager.o(i._Form_Menu_Show) refers to formmanager.o(i._saveClockSettings) for _saveClockSettings
    formmanager.o(i._btnStart) refers to memcpya.o(.text) for __aeabi_memcpy4
    formmanager.o(i._btnStart) refers to usercontrols_listbox.o(i.UserControls_ListBox_GetText) for UserControls_ListBox_GetText
    formmanager.o(i._btnStart) refers to strcat.o(.text) for strcat
    formmanager.o(i._btnStart) refers to flash.o(i.FlashFirmware) for FlashFirmware
    formmanager.o(i._btnStart) refers to formmanager.o(i._loadPrevious) for _loadPrevious
    formmanager.o(i._btnStart) refers to formmanager.o(.constdata) for .constdata
    formmanager.o(i._loadPrevious) refers to misc.o(i.NVIC_SetVectorTable) for NVIC_SetVectorTable
    formmanager.o(i._saveClockSettings) refers to rtc_time.o(i.RTC_TimeRegulate) for RTC_TimeRegulate
    formmanager.o(i._saveClockSettings) refers to formmanager.o(.data) for .data
    pwr.o(i.PWR_CheckStartupCalibrate) refers to stm32f4xx_gpio.o(i.GPIO_ReadInputDataBit) for GPIO_ReadInputDataBit
    pwr.o(i.PWR_CheckStartupCalibrate) refers to touchpanel.o(i.TouchPanel_Calibrate) for TouchPanel_Calibrate
    pwr.o(i.PWR_GoToSleep) refers to ili9481.o(i.LCD_Enter_Sleep_Mode) for LCD_Enter_Sleep_Mode
    pwr.o(i.PWR_GoToSleep) refers to stm32f4xx_pwr.o(i.PWR_WakeUpPinCmd) for PWR_WakeUpPinCmd
    pwr.o(i.PWR_GoToSleep) refers to stm32f4xx_pwr.o(i.PWR_EnterSTANDBYMode) for PWR_EnterSTANDBYMode
    pwr.o(i.PWR_InitButtons) refers to stm32f4xx_rcc.o(i.RCC_APB2PeriphClockCmd) for RCC_APB2PeriphClockCmd
    pwr.o(i.PWR_InitButtons) refers to pwr.o(i._PWR_InitDownButton) for _PWR_InitDownButton
    pwr.o(i.PWR_InitButtons) refers to pwr.o(i._PWR_InitUpButton) for _PWR_InitUpButton
    pwr.o(i.PWR_InitButtons) refers to stm32f4xx_rcc.o(i.RCC_APB1PeriphClockCmd) for RCC_APB1PeriphClockCmd
    pwr.o(i.PWR_InitButtons) refers to stm32f4xx_pwr.o(i.PWR_BackupAccessCmd) for PWR_BackupAccessCmd
    pwr.o(i.PWR_InitButtons) refers to stm32f4xx_pwr.o(i.PWR_ClearFlag) for PWR_ClearFlag
    pwr.o(i.PWR_InitButtons) refers to stm32f4xx_pwr.o(i.PWR_GetFlagStatus) for PWR_GetFlagStatus
    pwr.o(i.PWR_InitButtons) refers to stm32f4xx_rcc.o(i.RCC_BackupResetCmd) for RCC_BackupResetCmd
    pwr.o(i._PWR_InitDownButton) refers to stm32f4xx_rcc.o(i.RCC_AHB1PeriphClockCmd) for RCC_AHB1PeriphClockCmd
    pwr.o(i._PWR_InitDownButton) refers to stm32f4xx_gpio.o(i.GPIO_Init) for GPIO_Init
    pwr.o(i._PWR_InitDownButton) refers to stm32f4xx_syscfg.o(i.SYSCFG_EXTILineConfig) for SYSCFG_EXTILineConfig
    pwr.o(i._PWR_InitDownButton) refers to stm32f4xx_exti.o(i.EXTI_Init) for EXTI_Init
    pwr.o(i._PWR_InitDownButton) refers to misc.o(i.NVIC_Init) for NVIC_Init
    pwr.o(i._PWR_InitUpButton) refers to stm32f4xx_rcc.o(i.RCC_AHB1PeriphClockCmd) for RCC_AHB1PeriphClockCmd
    pwr.o(i._PWR_InitUpButton) refers to stm32f4xx_gpio.o(i.GPIO_Init) for GPIO_Init
    pwr.o(i._PWR_InitUpButton) refers to stm32f4xx_syscfg.o(i.SYSCFG_EXTILineConfig) for SYSCFG_EXTILineConfig
    pwr.o(i._PWR_InitUpButton) refers to stm32f4xx_exti.o(i.EXTI_Init) for EXTI_Init
    pwr.o(i._PWR_InitUpButton) refers to misc.o(i.NVIC_Init) for NVIC_Init
    rtc_time.o(i.Clock_GetTime) refers to stm32f4xx_rtc.o(i.RTC_GetTime) for RTC_GetTime
    rtc_time.o(i.Clock_GetTime) refers to rtc_time.o(.data) for .data
    rtc_time.o(i.RTC_Config) refers to stm32f4xx_rcc.o(i.RCC_APB1PeriphClockCmd) for RCC_APB1PeriphClockCmd
    rtc_time.o(i.RTC_Config) refers to stm32f4xx_pwr.o(i.PWR_BackupAccessCmd) for PWR_BackupAccessCmd
    rtc_time.o(i.RTC_Config) refers to stm32f4xx_rcc.o(i.RCC_LSEConfig) for RCC_LSEConfig
    rtc_time.o(i.RTC_Config) refers to stm32f4xx_rcc.o(i.RCC_GetFlagStatus) for RCC_GetFlagStatus
    rtc_time.o(i.RTC_Config) refers to stm32f4xx_rcc.o(i.RCC_RTCCLKConfig) for RCC_RTCCLKConfig
    rtc_time.o(i.RTC_Config) refers to stm32f4xx_rcc.o(i.RCC_RTCCLKCmd) for RCC_RTCCLKCmd
    rtc_time.o(i.RTC_Config) refers to stm32f4xx_rtc.o(i.RTC_WaitForSynchro) for RTC_WaitForSynchro
    rtc_time.o(i.RTC_Config) refers to rtc_time.o(.data) for .data
    rtc_time.o(i.RTC_TimeRegulate) refers to stm32f4xx_rtc.o(i.RTC_SetTime) for RTC_SetTime
    rtc_time.o(i.RTC_TimeRegulate) refers to stm32f4xx_rtc.o(i.RTC_WriteBackupRegister) for RTC_WriteBackupRegister
    rtc_time.o(i.RTC_TimeRegulate) refers to usercontrols_messagebox.o(i.MessageBox_Show) for MessageBox_Show
    rtc_time.o(i.RTC_TimeRegulate) refers to rtc_time.o(.data) for .data
    rtc_time.o(i.RTC_Time_Init) refers to stm32f4xx_rtc.o(i.RTC_ReadBackupRegister) for RTC_ReadBackupRegister
    rtc_time.o(i.RTC_Time_Init) refers to rtc_time.o(i.RTC_Config) for RTC_Config
    rtc_time.o(i.RTC_Time_Init) refers to stm32f4xx_rtc.o(i.RTC_Init) for RTC_Init
    rtc_time.o(i.RTC_Time_Init) refers to usercontrols_messagebox.o(i.MessageBox_Show) for MessageBox_Show
    rtc_time.o(i.RTC_Time_Init) refers to rtc_time.o(i.RTC_TimeRegulate) for RTC_TimeRegulate
    rtc_time.o(i.RTC_Time_Init) refers to stm32f4xx_rcc.o(i.RCC_GetFlagStatus) for RCC_GetFlagStatus
    rtc_time.o(i.RTC_Time_Init) refers to stm32f4xx_rcc.o(i.RCC_APB1PeriphClockCmd) for RCC_APB1PeriphClockCmd
    rtc_time.o(i.RTC_Time_Init) refers to stm32f4xx_pwr.o(i.PWR_BackupAccessCmd) for PWR_BackupAccessCmd
    rtc_time.o(i.RTC_Time_Init) refers to stm32f4xx_rtc.o(i.RTC_WaitForSynchro) for RTC_WaitForSynchro
    rtc_time.o(i.RTC_Time_Init) refers to stm32f4xx_rtc.o(i.RTC_ClearFlag) for RTC_ClearFlag
    rtc_time.o(i.RTC_Time_Init) refers to rtc_time.o(.data) for .data
    rtc_time.o(i.RTC_Time_Init) refers to rtc_time.o(.bss) for .bss
    atof.o(i.__softfp_atof) refers (Special) to iusefp.o(.text) for __I$use$fp
    atof.o(i.__softfp_atof) refers to errno.o(i.__read_errno) for __read_errno
    atof.o(i.__softfp_atof) refers to strtod.o(.text) for __strtod_int
    atof.o(i.__softfp_atof) refers to errno.o(i.__set_errno) for __set_errno
    atof.o(i.atof) refers (Special) to iusefp.o(.text) for __I$use$fp
    atof.o(i.atof) refers to errno.o(i.__read_errno) for __read_errno
    atof.o(i.atof) refers to strtod.o(.text) for __strtod_int
    atof.o(i.atof) refers to errno.o(i.__set_errno) for __set_errno
    entry.o(.ARM.Collect$$$$00000000) refers (Special) to entry7b.o(.ARM.Collect$$$$00000008) for _main_clock
    entry.o(.ARM.Collect$$$$00000000) refers (Special) to entry8.o(.ARM.Collect$$$$00000009) for _main_init
    entry.o(.ARM.Collect$$$$00000000) refers (Special) to entry5.o(.ARM.Collect$$$$00000004) for _main_scatterload
    entry.o(.ARM.Collect$$$$00000000) refers (Special) to entry2.o(.ARM.Collect$$$$00000001) for _main_stk
    printfb.o(i.__0fprintf$bare) refers to printfb.o(i._printf_core) for _printf_core
    printfb.o(i.__0fprintf$bare) refers to fputc.o(i.fputc) for fputc
    printfb.o(i.__0printf$bare) refers to printfb.o(i._printf_core) for _printf_core
    printfb.o(i.__0printf$bare) refers to fputc.o(i.fputc) for fputc
    printfb.o(i.__0printf$bare) refers to stdout.o(.data) for __stdout
    printfb.o(i.__0snprintf$bare) refers to printfb.o(i._printf_core) for _printf_core
    printfb.o(i.__0snprintf$bare) refers to printfb.o(i._snputc) for _snputc
    printfb.o(i.__0sprintf$bare) refers to printfb.o(i._printf_core) for _printf_core
    printfb.o(i.__0sprintf$bare) refers to printfb.o(i._sputc) for _sputc
    printfb.o(i.__0vfprintf$bare) refers to printfb.o(i._printf_core) for _printf_core
    printfb.o(i.__0vfprintf$bare) refers to fputc.o(i.fputc) for fputc
    printfb.o(i.__0vprintf$bare) refers to printfb.o(i._printf_core) for _printf_core
    printfb.o(i.__0vprintf$bare) refers to fputc.o(i.fputc) for fputc
    printfb.o(i.__0vprintf$bare) refers to stdout.o(.data) for __stdout
    printfb.o(i.__0vsnprintf$bare) refers to printfb.o(i._printf_core) for _printf_core
    printfb.o(i.__0vsnprintf$bare) refers to printfb.o(i._snputc) for _snputc
    printfb.o(i.__0vsprintf$bare) refers to printfb.o(i._printf_core) for _printf_core
    printfb.o(i.__0vsprintf$bare) refers to printfb.o(i._sputc) for _sputc
    printf0.o(i.__0fprintf$0) refers to printf0.o(i._printf_core) for _printf_core
    printf0.o(i.__0fprintf$0) refers to fputc.o(i.fputc) for fputc
    printf0.o(i.__0printf$0) refers to printf0.o(i._printf_core) for _printf_core
    printf0.o(i.__0printf$0) refers to fputc.o(i.fputc) for fputc
    printf0.o(i.__0printf$0) refers to stdout.o(.data) for __stdout
    printf0.o(i.__0snprintf$0) refers to printf0.o(i._printf_core) for _printf_core
    printf0.o(i.__0snprintf$0) refers to printf0.o(i._snputc) for _snputc
    printf0.o(i.__0sprintf$0) refers to printf0.o(i._printf_core) for _printf_core
    printf0.o(i.__0sprintf$0) refers to printf0.o(i._sputc) for _sputc
    printf0.o(i.__0vfprintf$0) refers to printf0.o(i._printf_core) for _printf_core
    printf0.o(i.__0vfprintf$0) refers to fputc.o(i.fputc) for fputc
    printf0.o(i.__0vprintf$0) refers to printf0.o(i._printf_core) for _printf_core
    printf0.o(i.__0vprintf$0) refers to fputc.o(i.fputc) for fputc
    printf0.o(i.__0vprintf$0) refers to stdout.o(.data) for __stdout
    printf0.o(i.__0vsnprintf$0) refers to printf0.o(i._printf_core) for _printf_core
    printf0.o(i.__0vsnprintf$0) refers to printf0.o(i._snputc) for _snputc
    printf0.o(i.__0vsprintf$0) refers to printf0.o(i._printf_core) for _printf_core
    printf0.o(i.__0vsprintf$0) refers to printf0.o(i._sputc) for _sputc
    printf1.o(i.__0fprintf$1) refers to printf1.o(i._printf_core) for _printf_core
    printf1.o(i.__0fprintf$1) refers to fputc.o(i.fputc) for fputc
    printf1.o(i.__0printf$1) refers to printf1.o(i._printf_core) for _printf_core
    printf1.o(i.__0printf$1) refers to fputc.o(i.fputc) for fputc
    printf1.o(i.__0printf$1) refers to stdout.o(.data) for __stdout
    printf1.o(i.__0snprintf$1) refers to printf1.o(i._printf_core) for _printf_core
    printf1.o(i.__0snprintf$1) refers to printf1.o(i._snputc) for _snputc
    printf1.o(i.__0sprintf$1) refers to printf1.o(i._printf_core) for _printf_core
    printf1.o(i.__0sprintf$1) refers to printf1.o(i._sputc) for _sputc
    printf1.o(i.__0vfprintf$1) refers to printf1.o(i._printf_core) for _printf_core
    printf1.o(i.__0vfprintf$1) refers to fputc.o(i.fputc) for fputc
    printf1.o(i.__0vprintf$1) refers to printf1.o(i._printf_core) for _printf_core
    printf1.o(i.__0vprintf$1) refers to fputc.o(i.fputc) for fputc
    printf1.o(i.__0vprintf$1) refers to stdout.o(.data) for __stdout
    printf1.o(i.__0vsnprintf$1) refers to printf1.o(i._printf_core) for _printf_core
    printf1.o(i.__0vsnprintf$1) refers to printf1.o(i._snputc) for _snputc
    printf1.o(i.__0vsprintf$1) refers to printf1.o(i._printf_core) for _printf_core
    printf1.o(i.__0vsprintf$1) refers to printf1.o(i._sputc) for _sputc
    printf1.o(i._printf_core) refers to uidiv.o(.text) for __aeabi_uidivmod
    printf2.o(i.__0fprintf$2) refers to printf2.o(i._printf_core) for _printf_core
    printf2.o(i.__0fprintf$2) refers to fputc.o(i.fputc) for fputc
    printf2.o(i.__0printf$2) refers to printf2.o(i._printf_core) for _printf_core
    printf2.o(i.__0printf$2) refers to fputc.o(i.fputc) for fputc
    printf2.o(i.__0printf$2) refers to stdout.o(.data) for __stdout
    printf2.o(i.__0snprintf$2) refers to printf2.o(i._printf_core) for _printf_core
    printf2.o(i.__0snprintf$2) refers to printf2.o(i._snputc) for _snputc
    printf2.o(i.__0sprintf$2) refers to printf2.o(i._printf_core) for _printf_core
    printf2.o(i.__0sprintf$2) refers to printf2.o(i._sputc) for _sputc
    printf2.o(i.__0vfprintf$2) refers to printf2.o(i._printf_core) for _printf_core
    printf2.o(i.__0vfprintf$2) refers to fputc.o(i.fputc) for fputc
    printf2.o(i.__0vprintf$2) refers to printf2.o(i._printf_core) for _printf_core
    printf2.o(i.__0vprintf$2) refers to fputc.o(i.fputc) for fputc
    printf2.o(i.__0vprintf$2) refers to stdout.o(.data) for __stdout
    printf2.o(i.__0vsnprintf$2) refers to printf2.o(i._printf_core) for _printf_core
    printf2.o(i.__0vsnprintf$2) refers to printf2.o(i._snputc) for _snputc
    printf2.o(i.__0vsprintf$2) refers to printf2.o(i._printf_core) for _printf_core
    printf2.o(i.__0vsprintf$2) refers to printf2.o(i._sputc) for _sputc
    printf3.o(i.__0fprintf$3) refers to printf3.o(i._printf_core) for _printf_core
    printf3.o(i.__0fprintf$3) refers to fputc.o(i.fputc) for fputc
    printf3.o(i.__0printf$3) refers to printf3.o(i._printf_core) for _printf_core
    printf3.o(i.__0printf$3) refers to fputc.o(i.fputc) for fputc
    printf3.o(i.__0printf$3) refers to stdout.o(.data) for __stdout
    printf3.o(i.__0snprintf$3) refers to printf3.o(i._printf_core) for _printf_core
    printf3.o(i.__0snprintf$3) refers to printf3.o(i._snputc) for _snputc
    printf3.o(i.__0sprintf$3) refers to printf3.o(i._printf_core) for _printf_core
    printf3.o(i.__0sprintf$3) refers to printf3.o(i._sputc) for _sputc
    printf3.o(i.__0vfprintf$3) refers to printf3.o(i._printf_core) for _printf_core
    printf3.o(i.__0vfprintf$3) refers to fputc.o(i.fputc) for fputc
    printf3.o(i.__0vprintf$3) refers to printf3.o(i._printf_core) for _printf_core
    printf3.o(i.__0vprintf$3) refers to fputc.o(i.fputc) for fputc
    printf3.o(i.__0vprintf$3) refers to stdout.o(.data) for __stdout
    printf3.o(i.__0vsnprintf$3) refers to printf3.o(i._printf_core) for _printf_core
    printf3.o(i.__0vsnprintf$3) refers to printf3.o(i._snputc) for _snputc
    printf3.o(i.__0vsprintf$3) refers to printf3.o(i._printf_core) for _printf_core
    printf3.o(i.__0vsprintf$3) refers to printf3.o(i._sputc) for _sputc
    printf3.o(i._printf_core) refers to uidiv.o(.text) for __aeabi_uidivmod
    printf4.o(i.__0fprintf$4) refers to printf4.o(i._printf_core) for _printf_core
    printf4.o(i.__0fprintf$4) refers to fputc.o(i.fputc) for fputc
    printf4.o(i.__0printf$4) refers to printf4.o(i._printf_core) for _printf_core
    printf4.o(i.__0printf$4) refers to fputc.o(i.fputc) for fputc
    printf4.o(i.__0printf$4) refers to stdout.o(.data) for __stdout
    printf4.o(i.__0snprintf$4) refers to printf4.o(i._printf_core) for _printf_core
    printf4.o(i.__0snprintf$4) refers to printf4.o(i._snputc) for _snputc
    printf4.o(i.__0sprintf$4) refers to printf4.o(i._printf_core) for _printf_core
    printf4.o(i.__0sprintf$4) refers to printf4.o(i._sputc) for _sputc
    printf4.o(i.__0vfprintf$4) refers to printf4.o(i._printf_core) for _printf_core
    printf4.o(i.__0vfprintf$4) refers to fputc.o(i.fputc) for fputc
    printf4.o(i.__0vprintf$4) refers to printf4.o(i._printf_core) for _printf_core
    printf4.o(i.__0vprintf$4) refers to fputc.o(i.fputc) for fputc
    printf4.o(i.__0vprintf$4) refers to stdout.o(.data) for __stdout
    printf4.o(i.__0vsnprintf$4) refers to printf4.o(i._printf_core) for _printf_core
    printf4.o(i.__0vsnprintf$4) refers to printf4.o(i._snputc) for _snputc
    printf4.o(i.__0vsprintf$4) refers to printf4.o(i._printf_core) for _printf_core
    printf4.o(i.__0vsprintf$4) refers to printf4.o(i._sputc) for _sputc
    printf4.o(i._printf_core) refers to uldiv.o(.text) for __aeabi_uldivmod
    printf5.o(i.__0fprintf$5) refers to printf5.o(i._printf_core) for _printf_core
    printf5.o(i.__0fprintf$5) refers to fputc.o(i.fputc) for fputc
    printf5.o(i.__0printf$5) refers to printf5.o(i._printf_core) for _printf_core
    printf5.o(i.__0printf$5) refers to fputc.o(i.fputc) for fputc
    printf5.o(i.__0printf$5) refers to stdout.o(.data) for __stdout
    printf5.o(i.__0snprintf$5) refers to printf5.o(i._printf_core) for _printf_core
    printf5.o(i.__0snprintf$5) refers to printf5.o(i._snputc) for _snputc
    printf5.o(i.__0sprintf$5) refers to printf5.o(i._printf_core) for _printf_core
    printf5.o(i.__0sprintf$5) refers to printf5.o(i._sputc) for _sputc
    printf5.o(i.__0vfprintf$5) refers to printf5.o(i._printf_core) for _printf_core
    printf5.o(i.__0vfprintf$5) refers to fputc.o(i.fputc) for fputc
    printf5.o(i.__0vprintf$5) refers to printf5.o(i._printf_core) for _printf_core
    printf5.o(i.__0vprintf$5) refers to fputc.o(i.fputc) for fputc
    printf5.o(i.__0vprintf$5) refers to stdout.o(.data) for __stdout
    printf5.o(i.__0vsnprintf$5) refers to printf5.o(i._printf_core) for _printf_core
    printf5.o(i.__0vsnprintf$5) refers to printf5.o(i._snputc) for _snputc
    printf5.o(i.__0vsprintf$5) refers to printf5.o(i._printf_core) for _printf_core
    printf5.o(i.__0vsprintf$5) refers to printf5.o(i._sputc) for _sputc
    printf5.o(i._printf_core) refers to uldiv.o(.text) for __aeabi_uldivmod
    printf6.o(i.__0fprintf$6) refers to printf6.o(i._printf_core) for _printf_core
    printf6.o(i.__0fprintf$6) refers to fputc.o(i.fputc) for fputc
    printf6.o(i.__0printf$6) refers to printf6.o(i._printf_core) for _printf_core
    printf6.o(i.__0printf$6) refers to fputc.o(i.fputc) for fputc
    printf6.o(i.__0printf$6) refers to stdout.o(.data) for __stdout
    printf6.o(i.__0snprintf$6) refers to printf6.o(i._printf_core) for _printf_core
    printf6.o(i.__0snprintf$6) refers to printf6.o(i._snputc) for _snputc
    printf6.o(i.__0sprintf$6) refers to printf6.o(i._printf_core) for _printf_core
    printf6.o(i.__0sprintf$6) refers to printf6.o(i._sputc) for _sputc
    printf6.o(i.__0vfprintf$6) refers to printf6.o(i._printf_core) for _printf_core
    printf6.o(i.__0vfprintf$6) refers to fputc.o(i.fputc) for fputc
    printf6.o(i.__0vprintf$6) refers to printf6.o(i._printf_core) for _printf_core
    printf6.o(i.__0vprintf$6) refers to fputc.o(i.fputc) for fputc
    printf6.o(i.__0vprintf$6) refers to stdout.o(.data) for __stdout
    printf6.o(i.__0vsnprintf$6) refers to printf6.o(i._printf_core) for _printf_core
    printf6.o(i.__0vsnprintf$6) refers to printf6.o(i._snputc) for _snputc
    printf6.o(i.__0vsprintf$6) refers to printf6.o(i._printf_core) for _printf_core
    printf6.o(i.__0vsprintf$6) refers to printf6.o(i._sputc) for _sputc
    printf6.o(i._printf_core) refers to printf6.o(i._printf_pre_padding) for _printf_pre_padding
    printf6.o(i._printf_core) refers to uidiv.o(.text) for __aeabi_uidivmod
    printf6.o(i._printf_core) refers to printf6.o(i._printf_post_padding) for _printf_post_padding
    printf7.o(i.__0fprintf$7) refers to printf7.o(i._printf_core) for _printf_core
    printf7.o(i.__0fprintf$7) refers to fputc.o(i.fputc) for fputc
    printf7.o(i.__0printf$7) refers to printf7.o(i._printf_core) for _printf_core
    printf7.o(i.__0printf$7) refers to fputc.o(i.fputc) for fputc
    printf7.o(i.__0printf$7) refers to stdout.o(.data) for __stdout
    printf7.o(i.__0snprintf$7) refers to printf7.o(i._printf_core) for _printf_core
    printf7.o(i.__0snprintf$7) refers to printf7.o(i._snputc) for _snputc
    printf7.o(i.__0sprintf$7) refers to printf7.o(i._printf_core) for _printf_core
    printf7.o(i.__0sprintf$7) refers to printf7.o(i._sputc) for _sputc
    printf7.o(i.__0vfprintf$7) refers to printf7.o(i._printf_core) for _printf_core
    printf7.o(i.__0vfprintf$7) refers to fputc.o(i.fputc) for fputc
    printf7.o(i.__0vprintf$7) refers to printf7.o(i._printf_core) for _printf_core
    printf7.o(i.__0vprintf$7) refers to fputc.o(i.fputc) for fputc
    printf7.o(i.__0vprintf$7) refers to stdout.o(.data) for __stdout
    printf7.o(i.__0vsnprintf$7) refers to printf7.o(i._printf_core) for _printf_core
    printf7.o(i.__0vsnprintf$7) refers to printf7.o(i._snputc) for _snputc
    printf7.o(i.__0vsprintf$7) refers to printf7.o(i._printf_core) for _printf_core
    printf7.o(i.__0vsprintf$7) refers to printf7.o(i._sputc) for _sputc
    printf7.o(i._printf_core) refers to printf7.o(i._printf_pre_padding) for _printf_pre_padding
    printf7.o(i._printf_core) refers to uldiv.o(.text) for __aeabi_uldivmod
    printf7.o(i._printf_core) refers to printf7.o(i._printf_post_padding) for _printf_post_padding
    printf8.o(i.__0fprintf$8) refers to printf8.o(i._printf_core) for _printf_core
    printf8.o(i.__0fprintf$8) refers to fputc.o(i.fputc) for fputc
    printf8.o(i.__0printf$8) refers to printf8.o(i._printf_core) for _printf_core
    printf8.o(i.__0printf$8) refers to fputc.o(i.fputc) for fputc
    printf8.o(i.__0printf$8) refers to stdout.o(.data) for __stdout
    printf8.o(i.__0snprintf$8) refers to printf8.o(i._printf_core) for _printf_core
    printf8.o(i.__0snprintf$8) refers to printf8.o(i._snputc) for _snputc
    printf8.o(i.__0sprintf$8) refers to printf8.o(i._printf_core) for _printf_core
    printf8.o(i.__0sprintf$8) refers to printf8.o(i._sputc) for _sputc
    printf8.o(i.__0vfprintf$8) refers to printf8.o(i._printf_core) for _printf_core
    printf8.o(i.__0vfprintf$8) refers to fputc.o(i.fputc) for fputc
    printf8.o(i.__0vprintf$8) refers to printf8.o(i._printf_core) for _printf_core
    printf8.o(i.__0vprintf$8) refers to fputc.o(i.fputc) for fputc
    printf8.o(i.__0vprintf$8) refers to stdout.o(.data) for __stdout
    printf8.o(i.__0vsnprintf$8) refers to printf8.o(i._printf_core) for _printf_core
    printf8.o(i.__0vsnprintf$8) refers to printf8.o(i._snputc) for _snputc
    printf8.o(i.__0vsprintf$8) refers to printf8.o(i._printf_core) for _printf_core
    printf8.o(i.__0vsprintf$8) refers to printf8.o(i._sputc) for _sputc
    printf8.o(i._printf_core) refers to printf8.o(i._printf_pre_padding) for _printf_pre_padding
    printf8.o(i._printf_core) refers to uldiv.o(.text) for __aeabi_uldivmod
    printf8.o(i._printf_core) refers to printf8.o(i._printf_post_padding) for _printf_post_padding
    printfa.o(i.__0fprintf) refers (Special) to iusefp.o(.text) for __I$use$fp
    printfa.o(i.__0fprintf) refers to printfa.o(i._printf_core) for _printf_core
    printfa.o(i.__0fprintf) refers to fputc.o(i.fputc) for fputc
    printfa.o(i.__0printf) refers (Special) to iusefp.o(.text) for __I$use$fp
    printfa.o(i.__0printf) refers to printfa.o(i._printf_core) for _printf_core
    printfa.o(i.__0printf) refers to fputc.o(i.fputc) for fputc
    printfa.o(i.__0printf) refers to stdout.o(.data) for __stdout
    printfa.o(i.__0snprintf) refers (Special) to iusefp.o(.text) for __I$use$fp
    printfa.o(i.__0snprintf) refers to printfa.o(i._printf_core) for _printf_core
    printfa.o(i.__0snprintf) refers to printfa.o(i._snputc) for _snputc
    printfa.o(i.__0sprintf) refers (Special) to iusefp.o(.text) for __I$use$fp
    printfa.o(i.__0sprintf) refers to printfa.o(i._printf_core) for _printf_core
    printfa.o(i.__0sprintf) refers to printfa.o(i._sputc) for _sputc
    printfa.o(i.__0vfprintf) refers (Special) to iusefp.o(.text) for __I$use$fp
    printfa.o(i.__0vfprintf) refers to printfa.o(i._printf_core) for _printf_core
    printfa.o(i.__0vfprintf) refers to fputc.o(i.fputc) for fputc
    printfa.o(i.__0vprintf) refers (Special) to iusefp.o(.text) for __I$use$fp
    printfa.o(i.__0vprintf) refers to printfa.o(i._printf_core) for _printf_core
    printfa.o(i.__0vprintf) refers to fputc.o(i.fputc) for fputc
    printfa.o(i.__0vprintf) refers to stdout.o(.data) for __stdout
    printfa.o(i.__0vsnprintf) refers (Special) to iusefp.o(.text) for __I$use$fp
    printfa.o(i.__0vsnprintf) refers to printfa.o(i._printf_core) for _printf_core
    printfa.o(i.__0vsnprintf) refers to printfa.o(i._snputc) for _snputc
    printfa.o(i.__0vsprintf) refers (Special) to iusefp.o(.text) for __I$use$fp
    printfa.o(i.__0vsprintf) refers to printfa.o(i._printf_core) for _printf_core
    printfa.o(i.__0vsprintf) refers to printfa.o(i._sputc) for _sputc
    printfa.o(i._fp_digits) refers (Special) to iusefp.o(.text) for __I$use$fp
    printfa.o(i._fp_digits) refers to dmul.o(.text) for __aeabi_dmul
    printfa.o(i._fp_digits) refers to ddiv.o(.text) for __aeabi_ddiv
    printfa.o(i._fp_digits) refers to cdrcmple.o(.text) for __aeabi_cdrcmple
    printfa.o(i._fp_digits) refers to dadd.o(.text) for __aeabi_dadd
    printfa.o(i._fp_digits) refers to dfixul.o(.text) for __aeabi_d2ulz
    printfa.o(i._fp_digits) refers to uldiv.o(.text) for __aeabi_uldivmod
    printfa.o(i._printf_core) refers (Special) to iusefp.o(.text) for __I$use$fp
    printfa.o(i._printf_core) refers to printfa.o(i._printf_pre_padding) for _printf_pre_padding
    printfa.o(i._printf_core) refers to uldiv.o(.text) for __aeabi_uldivmod
    printfa.o(i._printf_core) refers to printfa.o(i._printf_post_padding) for _printf_post_padding
    printfa.o(i._printf_core) refers to printfa.o(i._fp_digits) for _fp_digits
    printfa.o(i._printf_core) refers to uidiv.o(.text) for __aeabi_uidivmod
    printfa.o(i._printf_post_padding) refers (Special) to iusefp.o(.text) for __I$use$fp
    printfa.o(i._printf_pre_padding) refers (Special) to iusefp.o(.text) for __I$use$fp
    printfa.o(i._snputc) refers (Special) to iusefp.o(.text) for __I$use$fp
    printfa.o(i._sputc) refers (Special) to iusefp.o(.text) for __I$use$fp
    atoi.o(.text) refers to errno.o(i.__aeabi_errno_addr) for __aeabi_errno_addr
    atoi.o(.text) refers to strtol.o(.text) for strtol
    dadd.o(.text) refers (Special) to iusefp.o(.text) for __I$use$fp
    dadd.o(.text) refers to llshl.o(.text) for __aeabi_llsl
    dadd.o(.text) refers to llsshr.o(.text) for __aeabi_lasr
    dadd.o(.text) refers to depilogue.o(.text) for _double_epilogue
    dmul.o(.text) refers (Special) to iusefp.o(.text) for __I$use$fp
    dmul.o(.text) refers to depilogue.o(.text) for _double_epilogue
    ddiv.o(.text) refers (Special) to iusefp.o(.text) for __I$use$fp
    ddiv.o(.text) refers to depilogue.o(.text) for _double_round
    dflti.o(.text) refers (Special) to iusefp.o(.text) for __I$use$fp
    dflti.o(.text) refers to depilogue.o(.text) for _double_epilogue
    dfltui.o(.text) refers (Special) to iusefp.o(.text) for __I$use$fp
    dfltui.o(.text) refers to depilogue.o(.text) for _double_epilogue
    dfixi.o(.text) refers (Special) to iusefp.o(.text) for __I$use$fp
    dfixi.o(.text) refers to llushr.o(.text) for __aeabi_llsr
    dfixui.o(.text) refers (Special) to iusefp.o(.text) for __I$use$fp
    dfixui.o(.text) refers to llushr.o(.text) for __aeabi_llsr
    cdcmple.o(.text) refers (Special) to iusefp.o(.text) for __I$use$fp
    entry2.o(.ARM.Collect$$$$00000001) refers to entry2.o(.ARM.Collect$$$$00002712) for __lit__00000000
    entry2.o(.ARM.Collect$$$$00002712) refers to startup_stm32f4xx.o(STACK) for __initial_sp
    entry2.o(__vectab_stack_and_reset_area) refers to startup_stm32f4xx.o(STACK) for __initial_sp
    entry2.o(__vectab_stack_and_reset_area) refers to entry.o(.ARM.Collect$$$$00000000) for __main
    entry5.o(.ARM.Collect$$$$00000004) refers to init.o(.text) for __scatterload
    entry8.o(.ARM.Collect$$$$00000009) refers to main.o(i.main) for main
    fputc.o(i.fputc) refers (Special) to iusesemip.o(.text) for __I$use$semihosting$fputc
    fputc.o(i.fputc) refers (Special) to semi.o(.text) for __semihosting_library_function
    uldiv.o(.text) refers to llushr.o(.text) for __aeabi_llsr
    uldiv.o(.text) refers to llshl.o(.text) for __aeabi_llsl
    errno.o(i.__aeabi_errno_addr) refers to errno.o(.data) for .data
    errno.o(i.__read_errno) refers to errno.o(.data) for .data
    errno.o(i.__set_errno) refers to errno.o(.data) for .data
    strtod.o(.text) refers to scanf_fp.o(.text) for _scanf_real
    strtod.o(.text) refers to _sgetc.o(.text) for _sgetc
    strtod.o(.text) refers to isspace_o.o(.text) for isspace
    strtol.o(.text) refers to ctype_o.o(.text) for __rt_ctype_table
    strtol.o(.text) refers to _strtoul.o(.text) for _strtoul
    strtol.o(.text) refers to errno.o(i.__aeabi_errno_addr) for __aeabi_errno_addr
    depilogue.o(.text) refers to llshl.o(.text) for __aeabi_llsl
    depilogue.o(.text) refers to llushr.o(.text) for __aeabi_llsr
    dfixul.o(.text) refers to llushr.o(.text) for __aeabi_llsr
    dfixul.o(.text) refers to llshl.o(.text) for __aeabi_llsl
    init.o(.text) refers to entry5.o(.ARM.Collect$$$$00000004) for __main_after_scatterload
    isspace_c.o(.text) refers to ctype_c.o(.text) for __ctype_lookup
    ctype_o.o(.text) refers to ctype_o.o(.constdata) for .constdata
    ctype_o.o(.constdata) refers to ctype_o.o(.constdata) for __ctype_table
    isalnum_o.o(.text) refers to ctype_o.o(.text) for __rt_ctype_table
    isalpha_o.o(.text) refers to ctype_o.o(.text) for __rt_ctype_table
    isblank_o.o(.text) refers to ctype_o.o(.constdata) for __ctype_table
    iscntrl_o.o(.text) refers to ctype_o.o(.text) for __rt_ctype_table
    isdigit_o.o(.text) refers to ctype_o.o(.text) for __rt_ctype_table
    isgraph_o.o(.text) refers to ctype_o.o(.text) for __rt_ctype_table
    islower_o.o(.text) refers to ctype_o.o(.text) for __rt_ctype_table
    isprint_o.o(.text) refers to ctype_o.o(.text) for __rt_ctype_table
    ispunct_o.o(.text) refers to ctype_o.o(.text) for __rt_ctype_table
    isspace_o.o(.text) refers to ctype_o.o(.text) for __rt_ctype_table
    isupper_o.o(.text) refers to ctype_o.o(.text) for __rt_ctype_table
    isxdigit_o.o(.text) refers to ctype_o.o(.text) for __rt_ctype_table
    scanf_fp.o(.text) refers (Special) to iusefp.o(.text) for __I$use$fp
    scanf_fp.o(.text) refers to dfltul.o(.text) for __aeabi_ul2d
    scanf_fp.o(.text) refers to dmul.o(.text) for __aeabi_dmul
    scanf_fp.o(.text) refers to ddiv.o(.text) for __aeabi_ddiv
    scanf_fp.o(.text) refers to scanf_fp.o(i._is_digit) for _is_digit
    scanf_fp.o(.text) refers to d2f.o(.text) for __aeabi_d2f
    _strtoul.o(.text) refers to _chval.o(.text) for _chval
    _strtoul.o(.text) refers to errno.o(i.__aeabi_errno_addr) for __aeabi_errno_addr
    ctype_c.o(.text) refers to ctype_c.o(.constdata) for .constdata
    dfltul.o(.text) refers to depilogue.o(.text) for _double_epilogue
    d2f.o(.text) refers to fepilogue.o(.text) for _float_round
    scanf_fp.o(i._is_digit) refers (Special) to iusefp.o(.text) for __I$use$fp


==============================================================================

Removing Unused input sections from the image.

    Removing main.o(.emb_text), (8 bytes).
    Removing stm32f4xx_it.o(.emb_text), (8 bytes).
    Removing stm32f4xx_it.o(.data), (1 bytes).
    Removing system_stm32f4xx.o(.emb_text), (8 bytes).
    Removing system_stm32f4xx.o(i.SystemCoreClockUpdate), (120 bytes).
    Removing stm32f4xx_rcc.o(.emb_text), (8 bytes).
    Removing stm32f4xx_rcc.o(i.RCC_AHB1PeriphClockLPModeCmd), (24 bytes).
    Removing stm32f4xx_rcc.o(i.RCC_AHB1PeriphResetCmd), (24 bytes).
    Removing stm32f4xx_rcc.o(i.RCC_AHB2PeriphClockCmd), (24 bytes).
    Removing stm32f4xx_rcc.o(i.RCC_AHB2PeriphClockLPModeCmd), (24 bytes).
    Removing stm32f4xx_rcc.o(i.RCC_AHB2PeriphResetCmd), (24 bytes).
    Removing stm32f4xx_rcc.o(i.RCC_AHB3PeriphClockLPModeCmd), (24 bytes).
    Removing stm32f4xx_rcc.o(i.RCC_AHB3PeriphResetCmd), (24 bytes).
    Removing stm32f4xx_rcc.o(i.RCC_APB1PeriphClockLPModeCmd), (24 bytes).
    Removing stm32f4xx_rcc.o(i.RCC_APB2PeriphClockLPModeCmd), (24 bytes).
    Removing stm32f4xx_rcc.o(i.RCC_AdjustHSICalibrationValue), (20 bytes).
    Removing stm32f4xx_rcc.o(i.RCC_ClearFlag), (16 bytes).
    Removing stm32f4xx_rcc.o(i.RCC_ClearITPendingBit), (12 bytes).
    Removing stm32f4xx_rcc.o(i.RCC_ClockSecuritySystemCmd), (12 bytes).
    Removing stm32f4xx_rcc.o(i.RCC_DeInit), (60 bytes).
    Removing stm32f4xx_rcc.o(i.RCC_GetClocksFreq), (148 bytes).
    Removing stm32f4xx_rcc.o(i.RCC_GetITStatus), (20 bytes).
    Removing stm32f4xx_rcc.o(i.RCC_GetSYSCLKSource), (16 bytes).
    Removing stm32f4xx_rcc.o(i.RCC_HCLKConfig), (20 bytes).
    Removing stm32f4xx_rcc.o(i.RCC_HSEConfig), (16 bytes).
    Removing stm32f4xx_rcc.o(i.RCC_HSICmd), (12 bytes).
    Removing stm32f4xx_rcc.o(i.RCC_I2SCLKConfig), (12 bytes).
    Removing stm32f4xx_rcc.o(i.RCC_ITConfig), (24 bytes).
    Removing stm32f4xx_rcc.o(i.RCC_LSICmd), (12 bytes).
    Removing stm32f4xx_rcc.o(i.RCC_MCO1Config), (20 bytes).
    Removing stm32f4xx_rcc.o(i.RCC_MCO2Config), (20 bytes).
    Removing stm32f4xx_rcc.o(i.RCC_PCLK1Config), (20 bytes).
    Removing stm32f4xx_rcc.o(i.RCC_PCLK2Config), (20 bytes).
    Removing stm32f4xx_rcc.o(i.RCC_PLLCmd), (12 bytes).
    Removing stm32f4xx_rcc.o(i.RCC_PLLConfig), (40 bytes).
    Removing stm32f4xx_rcc.o(i.RCC_PLLI2SCmd), (12 bytes).
    Removing stm32f4xx_rcc.o(i.RCC_PLLI2SConfig), (16 bytes).
    Removing stm32f4xx_rcc.o(i.RCC_SYSCLKConfig), (20 bytes).
    Removing stm32f4xx_rcc.o(i.RCC_WaitForHSEStartUp), (38 bytes).
    Removing stm32f4xx_rcc.o(.data), (16 bytes).
    Removing misc.o(.emb_text), (8 bytes).
    Removing misc.o(i.NVIC_SystemLPConfig), (24 bytes).
    Removing misc.o(i.SysTick_CLKSourceConfig), (24 bytes).
    Removing stm32f4xx_gpio.o(.emb_text), (8 bytes).
    Removing stm32f4xx_gpio.o(i.GPIO_DeInit), (228 bytes).
    Removing stm32f4xx_gpio.o(i.GPIO_PinLockConfig), (16 bytes).
    Removing stm32f4xx_gpio.o(i.GPIO_ReadInputData), (6 bytes).
    Removing stm32f4xx_gpio.o(i.GPIO_ReadOutputData), (6 bytes).
    Removing stm32f4xx_gpio.o(i.GPIO_ReadOutputDataBit), (14 bytes).
    Removing stm32f4xx_gpio.o(i.GPIO_StructInit), (18 bytes).
    Removing stm32f4xx_gpio.o(i.GPIO_ToggleBits), (8 bytes).
    Removing stm32f4xx_gpio.o(i.GPIO_Write), (4 bytes).
    Removing stm32f4xx_gpio.o(i.GPIO_WriteBit), (10 bytes).
    Removing stm32f4xx_syscfg.o(.emb_text), (8 bytes).
    Removing stm32f4xx_syscfg.o(i.SYSCFG_CompensationCellCmd), (12 bytes).
    Removing stm32f4xx_syscfg.o(i.SYSCFG_DeInit), (24 bytes).
    Removing stm32f4xx_syscfg.o(i.SYSCFG_ETH_MediaInterfaceConfig), (12 bytes).
    Removing stm32f4xx_syscfg.o(i.SYSCFG_GetCompensationCellStatus), (20 bytes).
    Removing stm32f4xx_syscfg.o(i.SYSCFG_MemoryRemapConfig), (12 bytes).
    Removing stm32f4xx_exti.o(.emb_text), (8 bytes).
    Removing stm32f4xx_exti.o(i.EXTI_ClearFlag), (12 bytes).
    Removing stm32f4xx_exti.o(i.EXTI_DeInit), (36 bytes).
    Removing stm32f4xx_exti.o(i.EXTI_GenerateSWInterrupt), (16 bytes).
    Removing stm32f4xx_exti.o(i.EXTI_GetFlagStatus), (20 bytes).
    Removing stm32f4xx_exti.o(i.EXTI_StructInit), (14 bytes).
    Removing stm32f4xx_flash.o(.emb_text), (8 bytes).
    Removing stm32f4xx_flash.o(i.FLASH_DataCacheCmd), (28 bytes).
    Removing stm32f4xx_flash.o(i.FLASH_DataCacheReset), (16 bytes).
    Removing stm32f4xx_flash.o(i.FLASH_EraseAllSectors), (92 bytes).
    Removing stm32f4xx_flash.o(i.FLASH_GetFlagStatus), (20 bytes).
    Removing stm32f4xx_flash.o(i.FLASH_ITConfig), (24 bytes).
    Removing stm32f4xx_flash.o(i.FLASH_InstructionCacheCmd), (28 bytes).
    Removing stm32f4xx_flash.o(i.FLASH_InstructionCacheReset), (16 bytes).
    Removing stm32f4xx_flash.o(i.FLASH_OB_BORConfig), (24 bytes).
    Removing stm32f4xx_flash.o(i.FLASH_OB_GetBOR), (16 bytes).
    Removing stm32f4xx_flash.o(i.FLASH_OB_GetRDP), (20 bytes).
    Removing stm32f4xx_flash.o(i.FLASH_OB_GetUser), (16 bytes).
    Removing stm32f4xx_flash.o(i.FLASH_OB_GetWRP), (12 bytes).
    Removing stm32f4xx_flash.o(i.FLASH_OB_Launch), (20 bytes).
    Removing stm32f4xx_flash.o(i.FLASH_OB_Lock), (16 bytes).
    Removing stm32f4xx_flash.o(i.FLASH_OB_RDPConfig), (24 bytes).
    Removing stm32f4xx_flash.o(i.FLASH_OB_Unlock), (36 bytes).
    Removing stm32f4xx_flash.o(i.FLASH_OB_UserConfig), (40 bytes).
    Removing stm32f4xx_flash.o(i.FLASH_OB_WRPConfig), (36 bytes).
    Removing stm32f4xx_flash.o(i.FLASH_PrefetchBufferCmd), (28 bytes).
    Removing stm32f4xx_flash.o(i.FLASH_ProgramByte), (56 bytes).
    Removing stm32f4xx_flash.o(i.FLASH_ProgramDoubleWord), (64 bytes).
    Removing stm32f4xx_flash.o(i.FLASH_ProgramHalfWord), (60 bytes).
    Removing stm32f4xx_flash.o(i.FLASH_SetLatency), (12 bytes).
    Removing stm32f4xx_fsmc.o(.emb_text), (8 bytes).
    Removing stm32f4xx_fsmc.o(i.FSMC_ClearFlag), (36 bytes).
    Removing stm32f4xx_fsmc.o(i.FSMC_ClearITPendingBit), (40 bytes).
    Removing stm32f4xx_fsmc.o(i.FSMC_GetECC), (18 bytes).
    Removing stm32f4xx_fsmc.o(i.FSMC_GetFlagStatus), (40 bytes).
    Removing stm32f4xx_fsmc.o(i.FSMC_GetITStatus), (48 bytes).
    Removing stm32f4xx_fsmc.o(i.FSMC_ITConfig), (68 bytes).
    Removing stm32f4xx_fsmc.o(i.FSMC_NANDCmd), (56 bytes).
    Removing stm32f4xx_fsmc.o(i.FSMC_NANDDeInit), (40 bytes).
    Removing stm32f4xx_fsmc.o(i.FSMC_NANDECCCmd), (56 bytes).
    Removing stm32f4xx_fsmc.o(i.FSMC_NANDInit), (104 bytes).
    Removing stm32f4xx_fsmc.o(i.FSMC_NANDStructInit), (54 bytes).
    Removing stm32f4xx_fsmc.o(i.FSMC_NORSRAMDeInit), (36 bytes).
    Removing stm32f4xx_fsmc.o(i.FSMC_NORSRAMStructInit), (98 bytes).
    Removing stm32f4xx_fsmc.o(i.FSMC_PCCARDCmd), (32 bytes).
    Removing stm32f4xx_fsmc.o(i.FSMC_PCCARDDeInit), (28 bytes).
    Removing stm32f4xx_fsmc.o(i.FSMC_PCCARDInit), (104 bytes).
    Removing stm32f4xx_fsmc.o(i.FSMC_PCCARDStructInit), (60 bytes).
    Removing stm32f4xx_sdio.o(.emb_text), (8 bytes).
    Removing stm32f4xx_sdio.o(i.SDIO_CEATAITCmd), (16 bytes).
    Removing stm32f4xx_sdio.o(i.SDIO_CmdStructInit), (14 bytes).
    Removing stm32f4xx_sdio.o(i.SDIO_CommandCompletionCmd), (12 bytes).
    Removing stm32f4xx_sdio.o(i.SDIO_DataStructInit), (20 bytes).
    Removing stm32f4xx_sdio.o(i.SDIO_DeInit), (24 bytes).
    Removing stm32f4xx_sdio.o(i.SDIO_GetDataCounter), (12 bytes).
    Removing stm32f4xx_sdio.o(i.SDIO_GetFIFOCount), (12 bytes).
    Removing stm32f4xx_sdio.o(i.SDIO_SendCEATACmd), (12 bytes).
    Removing stm32f4xx_sdio.o(i.SDIO_SendSDIOSuspendCmd), (12 bytes).
    Removing stm32f4xx_sdio.o(i.SDIO_SetSDIOOperation), (12 bytes).
    Removing stm32f4xx_sdio.o(i.SDIO_SetSDIOReadWaitMode), (12 bytes).
    Removing stm32f4xx_sdio.o(i.SDIO_StartSDIOReadWait), (12 bytes).
    Removing stm32f4xx_sdio.o(i.SDIO_StopSDIOReadWait), (12 bytes).
    Removing stm32f4xx_sdio.o(i.SDIO_StructInit), (16 bytes).
    Removing stm32f4xx_sdio.o(i.SDIO_WriteData), (12 bytes).
    Removing stm32f4xx_dma.o(.emb_text), (8 bytes).
    Removing stm32f4xx_dma.o(i.DMA_ClearITPendingBit), (44 bytes).
    Removing stm32f4xx_dma.o(i.DMA_DoubleBufferModeCmd), (20 bytes).
    Removing stm32f4xx_dma.o(i.DMA_DoubleBufferModeConfig), (22 bytes).
    Removing stm32f4xx_dma.o(i.DMA_GetCmdStatus), (14 bytes).
    Removing stm32f4xx_dma.o(i.DMA_GetCurrDataCounter), (6 bytes).
    Removing stm32f4xx_dma.o(i.DMA_GetCurrentMemoryTarget), (14 bytes).
    Removing stm32f4xx_dma.o(i.DMA_GetFIFOStatus), (8 bytes).
    Removing stm32f4xx_dma.o(i.DMA_GetFlagStatus), (52 bytes).
    Removing stm32f4xx_dma.o(i.DMA_GetITStatus), (84 bytes).
    Removing stm32f4xx_dma.o(i.DMA_MemoryTargetConfig), (10 bytes).
    Removing stm32f4xx_dma.o(i.DMA_PeriphIncOffsetSizeConfig), (20 bytes).
    Removing stm32f4xx_dma.o(i.DMA_SetCurrDataCounter), (4 bytes).
    Removing stm32f4xx_dma.o(i.DMA_StructInit), (34 bytes).
    Removing stm32f4xx_spi.o(.emb_text), (8 bytes).
    Removing stm32f4xx_spi.o(i.I2S_Cmd), (20 bytes).
    Removing stm32f4xx_spi.o(i.I2S_FullDuplexConfig), (58 bytes).
    Removing stm32f4xx_spi.o(i.I2S_Init), (200 bytes).
    Removing stm32f4xx_spi.o(i.I2S_StructInit), (18 bytes).
    Removing stm32f4xx_spi.o(i.SPI_BiDirectionalLineConfig), (22 bytes).
    Removing stm32f4xx_spi.o(i.SPI_CalculateCRC), (20 bytes).
    Removing stm32f4xx_spi.o(i.SPI_DataSizeConfig), (16 bytes).
    Removing stm32f4xx_spi.o(i.SPI_GetCRC), (12 bytes).
    Removing stm32f4xx_spi.o(i.SPI_GetCRCPolynomial), (4 bytes).
    Removing stm32f4xx_spi.o(i.SPI_I2S_ClearFlag), (6 bytes).
    Removing stm32f4xx_spi.o(i.SPI_I2S_ClearITPendingBit), (14 bytes).
    Removing stm32f4xx_spi.o(i.SPI_I2S_DMACmd), (16 bytes).
    Removing stm32f4xx_spi.o(i.SPI_I2S_GetITStatus), (42 bytes).
    Removing stm32f4xx_spi.o(i.SPI_I2S_ITConfig), (24 bytes).
    Removing stm32f4xx_spi.o(i.SPI_NSSInternalSoftwareConfig), (24 bytes).
    Removing stm32f4xx_spi.o(i.SPI_SSOutputCmd), (20 bytes).
    Removing stm32f4xx_spi.o(i.SPI_StructInit), (24 bytes).
    Removing stm32f4xx_spi.o(i.SPI_TIModeCmd), (20 bytes).
    Removing stm32f4xx_spi.o(i.SPI_TransmitCRC), (10 bytes).
    Removing stm32f4xx_i2c.o(.emb_text), (8 bytes).
    Removing stm32f4xx_i2c.o(i.I2C_ARPCmd), (20 bytes).
    Removing stm32f4xx_i2c.o(i.I2C_AcknowledgeConfig), (20 bytes).
    Removing stm32f4xx_i2c.o(i.I2C_CalculatePEC), (20 bytes).
    Removing stm32f4xx_i2c.o(i.I2C_CheckEvent), (24 bytes).
    Removing stm32f4xx_i2c.o(i.I2C_ClearFlag), (6 bytes).
    Removing stm32f4xx_i2c.o(i.I2C_ClearITPendingBit), (6 bytes).
    Removing stm32f4xx_i2c.o(i.I2C_Cmd), (20 bytes).
    Removing stm32f4xx_i2c.o(i.I2C_DMACmd), (20 bytes).
    Removing stm32f4xx_i2c.o(i.I2C_DMALastTransferCmd), (20 bytes).
    Removing stm32f4xx_i2c.o(i.I2C_DeInit), (68 bytes).
    Removing stm32f4xx_i2c.o(i.I2C_DualAddressCmd), (20 bytes).
    Removing stm32f4xx_i2c.o(i.I2C_FastModeDutyCycleConfig), (22 bytes).
    Removing stm32f4xx_i2c.o(i.I2C_GeneralCallCmd), (20 bytes).
    Removing stm32f4xx_i2c.o(i.I2C_GenerateSTART), (20 bytes).
    Removing stm32f4xx_i2c.o(i.I2C_GenerateSTOP), (20 bytes).
    Removing stm32f4xx_i2c.o(i.I2C_GetFlagStatus), (30 bytes).
    Removing stm32f4xx_i2c.o(i.I2C_GetITStatus), (34 bytes).
    Removing stm32f4xx_i2c.o(i.I2C_GetLastEvent), (14 bytes).
    Removing stm32f4xx_i2c.o(i.I2C_GetPEC), (6 bytes).
    Removing stm32f4xx_i2c.o(i.I2C_ITConfig), (16 bytes).
    Removing stm32f4xx_i2c.o(i.I2C_Init), (180 bytes).
    Removing stm32f4xx_i2c.o(i.I2C_NACKPositionConfig), (22 bytes).
    Removing stm32f4xx_i2c.o(i.I2C_OwnAddress2Config), (16 bytes).
    Removing stm32f4xx_i2c.o(i.I2C_PECPositionConfig), (22 bytes).
    Removing stm32f4xx_i2c.o(i.I2C_ReadRegister), (4 bytes).
    Removing stm32f4xx_i2c.o(i.I2C_ReceiveData), (6 bytes).
    Removing stm32f4xx_i2c.o(i.I2C_SMBusAlertConfig), (22 bytes).
    Removing stm32f4xx_i2c.o(i.I2C_Send7bitAddress), (16 bytes).
    Removing stm32f4xx_i2c.o(i.I2C_SendData), (4 bytes).
    Removing stm32f4xx_i2c.o(i.I2C_SoftwareResetCmd), (20 bytes).
    Removing stm32f4xx_i2c.o(i.I2C_StretchClockCmd), (20 bytes).
    Removing stm32f4xx_i2c.o(i.I2C_StructInit), (28 bytes).
    Removing stm32f4xx_i2c.o(i.I2C_TransmitPEC), (20 bytes).
    Removing stm32f4xx_usart.o(.emb_text), (8 bytes).
    Removing stm32f4xx_usart.o(i.USART_ClearFlag), (6 bytes).
    Removing stm32f4xx_usart.o(i.USART_ClearITPendingBit), (12 bytes).
    Removing stm32f4xx_usart.o(i.USART_ClockInit), (28 bytes).
    Removing stm32f4xx_usart.o(i.USART_ClockStructInit), (12 bytes).
    Removing stm32f4xx_usart.o(i.USART_Cmd), (20 bytes).
    Removing stm32f4xx_usart.o(i.USART_DMACmd), (16 bytes).
    Removing stm32f4xx_usart.o(i.USART_DeInit), (140 bytes).
    Removing stm32f4xx_usart.o(i.USART_GetFlagStatus), (14 bytes).
    Removing stm32f4xx_usart.o(i.USART_GetITStatus), (62 bytes).
    Removing stm32f4xx_usart.o(i.USART_HalfDuplexCmd), (20 bytes).
    Removing stm32f4xx_usart.o(i.USART_ITConfig), (48 bytes).
    Removing stm32f4xx_usart.o(i.USART_Init), (184 bytes).
    Removing stm32f4xx_usart.o(i.USART_IrDACmd), (20 bytes).
    Removing stm32f4xx_usart.o(i.USART_IrDAConfig), (16 bytes).
    Removing stm32f4xx_usart.o(i.USART_LINBreakDetectLengthConfig), (16 bytes).
    Removing stm32f4xx_usart.o(i.USART_LINCmd), (20 bytes).
    Removing stm32f4xx_usart.o(i.USART_OneBitMethodCmd), (20 bytes).
    Removing stm32f4xx_usart.o(i.USART_OverSampling8Cmd), (20 bytes).
    Removing stm32f4xx_usart.o(i.USART_ReceiveData), (8 bytes).
    Removing stm32f4xx_usart.o(i.USART_ReceiverWakeUpCmd), (20 bytes).
    Removing stm32f4xx_usart.o(i.USART_SendBreak), (10 bytes).
    Removing stm32f4xx_usart.o(i.USART_SendData), (8 bytes).
    Removing stm32f4xx_usart.o(i.USART_SetAddress), (16 bytes).
    Removing stm32f4xx_usart.o(i.USART_SetGuardTime), (16 bytes).
    Removing stm32f4xx_usart.o(i.USART_SetPrescaler), (16 bytes).
    Removing stm32f4xx_usart.o(i.USART_SmartCardCmd), (20 bytes).
    Removing stm32f4xx_usart.o(i.USART_SmartCardNACKCmd), (20 bytes).
    Removing stm32f4xx_usart.o(i.USART_StructInit), (22 bytes).
    Removing stm32f4xx_usart.o(i.USART_WakeUpConfig), (16 bytes).
    Removing stm32f4xx_rtc.o(.emb_text), (8 bytes).
    Removing stm32f4xx_rtc.o(i.RTC_AlarmCmd), (76 bytes).
    Removing stm32f4xx_rtc.o(i.RTC_AlarmStructInit), (20 bytes).
    Removing stm32f4xx_rtc.o(i.RTC_AlarmSubSecondConfig), (44 bytes).
    Removing stm32f4xx_rtc.o(i.RTC_BypassShadowCmd), (44 bytes).
    Removing stm32f4xx_rtc.o(i.RTC_CalibOutputCmd), (44 bytes).
    Removing stm32f4xx_rtc.o(i.RTC_CalibOutputConfig), (40 bytes).
    Removing stm32f4xx_rtc.o(i.RTC_ClearITPendingBit), (28 bytes).
    Removing stm32f4xx_rtc.o(i.RTC_CoarseCalibCmd), (60 bytes).
    Removing stm32f4xx_rtc.o(i.RTC_CoarseCalibConfig), (52 bytes).
    Removing stm32f4xx_rtc.o(i.RTC_DateStructInit), (14 bytes).
    Removing stm32f4xx_rtc.o(i.RTC_DayLightSavingConfig), (44 bytes).
    Removing stm32f4xx_rtc.o(i.RTC_DeInit), (148 bytes).
    Removing stm32f4xx_rtc.o(i.RTC_GetAlarm), (108 bytes).
    Removing stm32f4xx_rtc.o(i.RTC_GetAlarmSubSecond), (28 bytes).
    Removing stm32f4xx_rtc.o(i.RTC_GetDate), (72 bytes).
    Removing stm32f4xx_rtc.o(i.RTC_GetFlagStatus), (28 bytes).
    Removing stm32f4xx_rtc.o(i.RTC_GetITStatus), (56 bytes).
    Removing stm32f4xx_rtc.o(i.RTC_GetStoreOperation), (16 bytes).
    Removing stm32f4xx_rtc.o(i.RTC_GetSubSecond), (16 bytes).
    Removing stm32f4xx_rtc.o(i.RTC_GetTimeStamp), (136 bytes).
    Removing stm32f4xx_rtc.o(i.RTC_GetTimeStampSubSecond), (12 bytes).
    Removing stm32f4xx_rtc.o(i.RTC_GetWakeUpCounter), (12 bytes).
    Removing stm32f4xx_rtc.o(i.RTC_ITConfig), (64 bytes).
    Removing stm32f4xx_rtc.o(i.RTC_OutputConfig), (44 bytes).
    Removing stm32f4xx_rtc.o(i.RTC_OutputTypeConfig), (24 bytes).
    Removing stm32f4xx_rtc.o(i.RTC_RefClockCmd), (60 bytes).
    Removing stm32f4xx_rtc.o(i.RTC_SetAlarm), (164 bytes).
    Removing stm32f4xx_rtc.o(i.RTC_SetDate), (148 bytes).
    Removing stm32f4xx_rtc.o(i.RTC_SetWakeUpCounter), (28 bytes).
    Removing stm32f4xx_rtc.o(i.RTC_SmoothCalibConfig), (76 bytes).
    Removing stm32f4xx_rtc.o(i.RTC_StructInit), (14 bytes).
    Removing stm32f4xx_rtc.o(i.RTC_SynchroShiftConfig), (88 bytes).
    Removing stm32f4xx_rtc.o(i.RTC_TamperCmd), (24 bytes).
    Removing stm32f4xx_rtc.o(i.RTC_TamperFilterConfig), (24 bytes).
    Removing stm32f4xx_rtc.o(i.RTC_TamperPinSelection), (24 bytes).
    Removing stm32f4xx_rtc.o(i.RTC_TamperPinsPrechargeDuration), (24 bytes).
    Removing stm32f4xx_rtc.o(i.RTC_TamperPullUpCmd), (28 bytes).
    Removing stm32f4xx_rtc.o(i.RTC_TamperSamplingFreqConfig), (24 bytes).
    Removing stm32f4xx_rtc.o(i.RTC_TamperTriggerConfig), (28 bytes).
    Removing stm32f4xx_rtc.o(i.RTC_TimeStampCmd), (48 bytes).
    Removing stm32f4xx_rtc.o(i.RTC_TimeStampOnTamperDetectionCmd), (28 bytes).
    Removing stm32f4xx_rtc.o(i.RTC_TimeStampPinSelection), (24 bytes).
    Removing stm32f4xx_rtc.o(i.RTC_TimeStructInit), (12 bytes).
    Removing stm32f4xx_rtc.o(i.RTC_WakeUpClockConfig), (40 bytes).
    Removing stm32f4xx_rtc.o(i.RTC_WakeUpCmd), (84 bytes).
    Removing stm32f4xx_rtc.o(i.RTC_WriteProtectionCmd), (24 bytes).
    Removing stm32f4xx_pwr.o(.emb_text), (8 bytes).
    Removing stm32f4xx_pwr.o(i.PWR_BackupRegulatorCmd), (12 bytes).
    Removing stm32f4xx_pwr.o(i.PWR_DeInit), (24 bytes).
    Removing stm32f4xx_pwr.o(i.PWR_EnterSTOPMode), (52 bytes).
    Removing stm32f4xx_pwr.o(i.PWR_FlashPowerDownCmd), (12 bytes).
    Removing stm32f4xx_pwr.o(i.PWR_MainRegulatorModeConfig), (28 bytes).
    Removing stm32f4xx_pwr.o(i.PWR_PVDCmd), (12 bytes).
    Removing stm32f4xx_pwr.o(i.PWR_PVDLevelConfig), (20 bytes).
    Removing startup_stm32f4xx.o(HEAP), (512 bytes).
    Removing asciilib.o(.emb_text), (8 bytes).
    Removing ili9481.o(.emb_text), (8 bytes).
    Removing lcd.o(.emb_text), (8 bytes).
    Removing stm324xg_eval.o(.emb_text), (8 bytes).
    Removing stm324xg_eval.o(i.SD_LowLevel_DeInit), (152 bytes).
    Removing stm324xg_eval.o(i.STM_EVAL_COMInit), (200 bytes).
    Removing stm324xg_eval.o(i.sEE_LowLevel_DMAConfig), (44 bytes).
    Removing stm324xg_eval.o(i.sEE_LowLevel_DeInit), (148 bytes).
    Removing stm324xg_eval.o(i.sEE_LowLevel_Init), (320 bytes).
    Removing stm324xg_eval.o(.bss), (60 bytes).
    Removing stm324xg_eval.o(.constdata), (24 bytes).
    Removing stm324xg_eval.o(.data), (16 bytes).
    Removing stm324xg_eval_sdio_sd.o(.emb_text), (8 bytes).
    Removing stm324xg_eval_sdio_sd.o(i.IsCardProgramming), (276 bytes).
    Removing stm324xg_eval_sdio_sd.o(i.SD_DeInit), (4 bytes).
    Removing stm324xg_eval_sdio_sd.o(i.SD_Erase), (264 bytes).
    Removing stm324xg_eval_sdio_sd.o(i.SD_GetCardStatus), (128 bytes).
    Removing stm324xg_eval_sdio_sd.o(i.SD_GetTransferState), (20 bytes).
    Removing stm324xg_eval_sdio_sd.o(i.SD_PowerOFF), (14 bytes).
    Removing stm324xg_eval_sdio_sd.o(i.SD_ReadBlock), (176 bytes).
    Removing stm324xg_eval_sdio_sd.o(i.SD_SendSDStatus), (344 bytes).
    Removing stm324xg_eval_sdio_sd.o(i.SD_WriteBlock), (172 bytes).
    Removing stm324xg_eval_sdio_sd.o(i.convert_from_bytes_to_power_of_two), (18 bytes).
    Removing diskio.o(.emb_text), (8 bytes).
    Removing ff.o(.emb_text), (8 bytes).
    Removing sduser.o(.emb_text), (8 bytes).
    Removing usercontrols_button.o(.emb_text), (8 bytes).
    Removing usercontrols_checkbox.o(.emb_text), (8 bytes).
    Removing usercontrols_listbox.o(.emb_text), (8 bytes).
    Removing usercontrols_messagebox.o(.emb_text), (8 bytes).
    Removing usercontrols_radiobutton.o(.emb_text), (8 bytes).
    Removing usercontrols_valueregulator.o(.emb_text), (8 bytes).
    Removing flash.o(.emb_text), (8 bytes).
    Removing flash.o(.data), (4 bytes).
    Removing flash.o(.data), (4 bytes).
    Removing flash.o(.data), (4 bytes).
    Removing touchpanel.o(.emb_text), (8 bytes).
    Removing core.o(.emb_text), (8 bytes).
    Removing core.o(i.CORE_DownloadCoreTable), (52 bytes).
    Removing core.o(.data), (4 bytes).
    Removing formmanager.o(.emb_text), (8 bytes).
    Removing pwr.o(.emb_text), (8 bytes).
    Removing rtc_time.o(.emb_text), (8 bytes).
    Removing rtc_time.o(.bss), (16 bytes).
    Removing dfixul.o(.text), (48 bytes).
    Removing cdrcmple.o(.text), (40 bytes).

323 unused section(s) (total 11657 bytes) removed from the image.

==============================================================================

Image Symbol Table

    Local Symbols

    Symbol Name                              Value     Ov Type        Size  Object(Section)

    ../clib/microlib/ctype/ctype.c           0x00000000   Number         0  isalnum_o.o ABSOLUTE
    ../clib/microlib/ctype/ctype.c           0x00000000   Number         0  ispunct_o.o ABSOLUTE
    ../clib/microlib/ctype/ctype.c           0x00000000   Number         0  isspace_c.o ABSOLUTE
    ../clib/microlib/ctype/ctype.c           0x00000000   Number         0  ctype_o.o ABSOLUTE
    ../clib/microlib/ctype/ctype.c           0x00000000   Number         0  isxdigit_o.o ABSOLUTE
    ../clib/microlib/ctype/ctype.c           0x00000000   Number         0  ctype_c.o ABSOLUTE
    ../clib/microlib/ctype/ctype.c           0x00000000   Number         0  iscntrl_o.o ABSOLUTE
    ../clib/microlib/ctype/ctype.c           0x00000000   Number         0  isblank_o.o ABSOLUTE
    ../clib/microlib/ctype/ctype.c           0x00000000   Number         0  isalpha_o.o ABSOLUTE
    ../clib/microlib/ctype/ctype.c           0x00000000   Number         0  isprint_o.o ABSOLUTE
    ../clib/microlib/ctype/ctype.c           0x00000000   Number         0  isdigit_o.o ABSOLUTE
    ../clib/microlib/ctype/ctype.c           0x00000000   Number         0  isupper_o.o ABSOLUTE
    ../clib/microlib/ctype/ctype.c           0x00000000   Number         0  isgraph_o.o ABSOLUTE
    ../clib/microlib/ctype/ctype.c           0x00000000   Number         0  islower_o.o ABSOLUTE
    ../clib/microlib/ctype/ctype.c           0x00000000   Number         0  isspace_o.o ABSOLUTE
    ../clib/microlib/division.c              0x00000000   Number         0  uidiv.o ABSOLUTE
    ../clib/microlib/division.c              0x00000000   Number         0  uldiv.o ABSOLUTE
    ../clib/microlib/errno.c                 0x00000000   Number         0  errno.o ABSOLUTE
    ../clib/microlib/init/entry.s            0x00000000   Number         0  entry7a.o ABSOLUTE
    ../clib/microlib/init/entry.s            0x00000000   Number         0  entry7b.o ABSOLUTE
    ../clib/microlib/init/entry.s            0x00000000   Number         0  entry2.o ABSOLUTE
    ../clib/microlib/init/entry.s            0x00000000   Number         0  entry8.o ABSOLUTE
    ../clib/microlib/init/entry.s            0x00000000   Number         0  entry5.o ABSOLUTE
    ../clib/microlib/init/entry.s            0x00000000   Number         0  entry.o ABSOLUTE
    ../clib/microlib/longlong.c              0x00000000   Number         0  llushr.o ABSOLUTE
    ../clib/microlib/longlong.c              0x00000000   Number         0  llsshr.o ABSOLUTE
    ../clib/microlib/longlong.c              0x00000000   Number         0  llshl.o ABSOLUTE
    ../clib/microlib/printf/printf.c         0x00000000   Number         0  printf2.o ABSOLUTE
    ../clib/microlib/printf/printf.c         0x00000000   Number         0  printf0.o ABSOLUTE
    ../clib/microlib/printf/printf.c         0x00000000   Number         0  printfb.o ABSOLUTE
    ../clib/microlib/printf/printf.c         0x00000000   Number         0  printfa.o ABSOLUTE
    ../clib/microlib/printf/printf.c         0x00000000   Number         0  printf8.o ABSOLUTE
    ../clib/microlib/printf/printf.c         0x00000000   Number         0  printf7.o ABSOLUTE
    ../clib/microlib/printf/printf.c         0x00000000   Number         0  printf6.o ABSOLUTE
    ../clib/microlib/printf/printf.c         0x00000000   Number         0  printf5.o ABSOLUTE
    ../clib/microlib/printf/printf.c         0x00000000   Number         0  printf1.o ABSOLUTE
    ../clib/microlib/printf/printf.c         0x00000000   Number         0  printf4.o ABSOLUTE
    ../clib/microlib/printf/printf.c         0x00000000   Number         0  printf3.o ABSOLUTE
    ../clib/microlib/printf/stubs.s          0x00000000   Number         0  stubs.o ABSOLUTE
    ../clib/microlib/stdio/fputc.c           0x00000000   Number         0  fputc.o ABSOLUTE
    ../clib/microlib/stdio/semi.s            0x00000000   Number         0  semi.o ABSOLUTE
    ../clib/microlib/stdio/streams.c         0x00000000   Number         0  stdout.o ABSOLUTE
    ../clib/microlib/string/memcpy.c         0x00000000   Number         0  memcpyb.o ABSOLUTE
    ../clib/microlib/string/memcpy.c         0x00000000   Number         0  memcpya.o ABSOLUTE
    ../clib/microlib/string/memset.c         0x00000000   Number         0  memseta.o ABSOLUTE
    ../clib/microlib/string/strcat.c         0x00000000   Number         0  strcat.o ABSOLUTE
    ../clib/microlib/string/strcmp.c         0x00000000   Number         0  strcmp.o ABSOLUTE
    ../clib/microlib/string/strcpy.c         0x00000000   Number         0  strcpy.o ABSOLUTE
    ../clib/microlib/string/strlen.c         0x00000000   Number         0  strlen.o ABSOLUTE
    ../clib/microlib/stubs.s                 0x00000000   Number         0  iusefp.o ABSOLUTE
    ../clib/microlib/stubs.s                 0x00000000   Number         0  iusesemip.o ABSOLUTE
    ../clib/scanf.c                          0x00000000   Number         0  _chval.o ABSOLUTE
    ../clib/scanf.c                          0x00000000   Number         0  scanf_fp.o ABSOLUTE
    ../clib/scanf.c                          0x00000000   Number         0  _sgetc.o ABSOLUTE
    ../clib/scanf.c                          0x00000000   Number         0  atoi.o ABSOLUTE
    ../clib/scanf.c                          0x00000000   Number         0  _strtoul.o ABSOLUTE
    ../clib/scanf.c                          0x00000000   Number         0  strtod.o ABSOLUTE
    ../clib/scanf.c                          0x00000000   Number         0  strtol.o ABSOLUTE
    ../fplib/microlib/d2f.c                  0x00000000   Number         0  d2f.o ABSOLUTE
    ../fplib/microlib/fpadd.c                0x00000000   Number         0  dadd.o ABSOLUTE
    ../fplib/microlib/fpdiv.c                0x00000000   Number         0  ddiv.o ABSOLUTE
    ../fplib/microlib/fpepilogue.c           0x00000000   Number         0  fepilogue.o ABSOLUTE
    ../fplib/microlib/fpepilogue.c           0x00000000   Number         0  depilogue.o ABSOLUTE
    ../fplib/microlib/fpfix.c                0x00000000   Number         0  dfixui.o ABSOLUTE
    ../fplib/microlib/fpfix.c                0x00000000   Number         0  dfixi.o ABSOLUTE
    ../fplib/microlib/fpfix.c                0x00000000   Number         0  dfixul.o ABSOLUTE
    ../fplib/microlib/fpflt.c                0x00000000   Number         0  dfltui.o ABSOLUTE
    ../fplib/microlib/fpflt.c                0x00000000   Number         0  dflti.o ABSOLUTE
    ../fplib/microlib/fpflt.c                0x00000000   Number         0  dfltul.o ABSOLUTE
    ../fplib/microlib/fpmul.c                0x00000000   Number         0  dmul.o ABSOLUTE
    ../mathlib/atof.c                        0x00000000   Number         0  atof.o ABSOLUTE
    ..\..\..\..\Libraries\CMSIS\ST\STM32F4xx\Source\Templates\arm\startup_stm32f4xx.s 0x00000000   Number         0  startup_stm32f4xx.o ABSOLUTE
    ..\..\..\..\Libraries\STM32F4xx_StdPeriph_Driver\src\misc.c 0x00000000   Number         0  misc.o ABSOLUTE
    ..\..\..\..\Libraries\STM32F4xx_StdPeriph_Driver\src\stm32f4xx_dma.c 0x00000000   Number         0  stm32f4xx_dma.o ABSOLUTE
    ..\..\..\..\Libraries\STM32F4xx_StdPeriph_Driver\src\stm32f4xx_exti.c 0x00000000   Number         0  stm32f4xx_exti.o ABSOLUTE
    ..\..\..\..\Libraries\STM32F4xx_StdPeriph_Driver\src\stm32f4xx_flash.c 0x00000000   Number         0  stm32f4xx_flash.o ABSOLUTE
    ..\..\..\..\Libraries\STM32F4xx_StdPeriph_Driver\src\stm32f4xx_fsmc.c 0x00000000   Number         0  stm32f4xx_fsmc.o ABSOLUTE
    ..\..\..\..\Libraries\STM32F4xx_StdPeriph_Driver\src\stm32f4xx_gpio.c 0x00000000   Number         0  stm32f4xx_gpio.o ABSOLUTE
    ..\..\..\..\Libraries\STM32F4xx_StdPeriph_Driver\src\stm32f4xx_i2c.c 0x00000000   Number         0  stm32f4xx_i2c.o ABSOLUTE
    ..\..\..\..\Libraries\STM32F4xx_StdPeriph_Driver\src\stm32f4xx_pwr.c 0x00000000   Number         0  stm32f4xx_pwr.o ABSOLUTE
    ..\..\..\..\Libraries\STM32F4xx_StdPeriph_Driver\src\stm32f4xx_rcc.c 0x00000000   Number         0  stm32f4xx_rcc.o ABSOLUTE
    ..\..\..\..\Libraries\STM32F4xx_StdPeriph_Driver\src\stm32f4xx_rtc.c 0x00000000   Number         0  stm32f4xx_rtc.o ABSOLUTE
    ..\..\..\..\Libraries\STM32F4xx_StdPeriph_Driver\src\stm32f4xx_sdio.c 0x00000000   Number         0  stm32f4xx_sdio.o ABSOLUTE
    ..\..\..\..\Libraries\STM32F4xx_StdPeriph_Driver\src\stm32f4xx_spi.c 0x00000000   Number         0  stm32f4xx_spi.o ABSOLUTE
    ..\..\..\..\Libraries\STM32F4xx_StdPeriph_Driver\src\stm32f4xx_syscfg.c 0x00000000   Number         0  stm32f4xx_syscfg.o ABSOLUTE
    ..\..\..\..\Libraries\STM32F4xx_StdPeriph_Driver\src\stm32f4xx_usart.c 0x00000000   Number         0  stm32f4xx_usart.o ABSOLUTE
    ..\Core\Core.c                           0x00000000   Number         0  core.o ABSOLUTE
    ..\FATFS\src\diskio.c                    0x00000000   Number         0  diskio.o ABSOLUTE
    ..\FATFS\src\fattime.c                   0x00000000   Number         0  fattime.o ABSOLUTE
    ..\FATFS\src\ff.c                        0x00000000   Number         0  ff.o ABSOLUTE
    ..\FATFS\src\option\ccsbcs.c             0x00000000   Number         0  ccsbcs.o ABSOLUTE
    ..\Flash\flash.c                         0x00000000   Number         0  flash.o ABSOLUTE
    ..\FormManager\FormManager.c             0x00000000   Number         0  formmanager.o ABSOLUTE
    ..\LCD\AsciiLib.c                        0x00000000   Number         0  asciilib.o ABSOLUTE
    ..\LCD\Drivers\src\ILI9481.c             0x00000000   Number         0  ili9481.o ABSOLUTE
    ..\LCD\LCD.c                             0x00000000   Number         0  lcd.o ABSOLUTE
    ..\PWR\PWR.c                             0x00000000   Number         0  pwr.o ABSOLUTE
    ..\RTC\RTC_Time.c                        0x00000000   Number         0  rtc_time.o ABSOLUTE
    ..\SDIO\stm324xg_eval.c                  0x00000000   Number         0  stm324xg_eval.o ABSOLUTE
    ..\SDIO\stm324xg_eval_sdio_sd.c          0x00000000   Number         0  stm324xg_eval_sdio_sd.o ABSOLUTE
    ..\SD\SDUser.c                           0x00000000   Number         0  sduser.o ABSOLUTE
    ..\TouchPanel\TouchPanel.c               0x00000000   Number         0  touchpanel.o ABSOLUTE
    ..\UserControls\UserControls_Button.c    0x00000000   Number         0  usercontrols_button.o ABSOLUTE
    ..\UserControls\UserControls_CheckBox.c  0x00000000   Number         0  usercontrols_checkbox.o ABSOLUTE
    ..\UserControls\UserControls_ListBox.c   0x00000000   Number         0  usercontrols_listbox.o ABSOLUTE
    ..\UserControls\UserControls_MessageBox.c 0x00000000   Number         0  usercontrols_messagebox.o ABSOLUTE
    ..\UserControls\UserControls_RadioButton.c 0x00000000   Number         0  usercontrols_radiobutton.o ABSOLUTE
    ..\UserControls\UserControls_ValueRegulator.c 0x00000000   Number         0  usercontrols_valueregulator.o ABSOLUTE
    ..\\..\\..\\..\\Libraries\\STM32F4xx_StdPeriph_Driver\\src\\misc.c 0x00000000   Number         0  misc.o ABSOLUTE
    ..\\..\\..\\..\\Libraries\\STM32F4xx_StdPeriph_Driver\\src\\stm32f4xx_dma.c 0x00000000   Number         0  stm32f4xx_dma.o ABSOLUTE
    ..\\..\\..\\..\\Libraries\\STM32F4xx_StdPeriph_Driver\\src\\stm32f4xx_exti.c 0x00000000   Number         0  stm32f4xx_exti.o ABSOLUTE
    ..\\..\\..\\..\\Libraries\\STM32F4xx_StdPeriph_Driver\\src\\stm32f4xx_flash.c 0x00000000   Number         0  stm32f4xx_flash.o ABSOLUTE
    ..\\..\\..\\..\\Libraries\\STM32F4xx_StdPeriph_Driver\\src\\stm32f4xx_fsmc.c 0x00000000   Number         0  stm32f4xx_fsmc.o ABSOLUTE
    ..\\..\\..\\..\\Libraries\\STM32F4xx_StdPeriph_Driver\\src\\stm32f4xx_gpio.c 0x00000000   Number         0  stm32f4xx_gpio.o ABSOLUTE
    ..\\..\\..\\..\\Libraries\\STM32F4xx_StdPeriph_Driver\\src\\stm32f4xx_i2c.c 0x00000000   Number         0  stm32f4xx_i2c.o ABSOLUTE
    ..\\..\\..\\..\\Libraries\\STM32F4xx_StdPeriph_Driver\\src\\stm32f4xx_pwr.c 0x00000000   Number         0  stm32f4xx_pwr.o ABSOLUTE
    ..\\..\\..\\..\\Libraries\\STM32F4xx_StdPeriph_Driver\\src\\stm32f4xx_rcc.c 0x00000000   Number         0  stm32f4xx_rcc.o ABSOLUTE
    ..\\..\\..\\..\\Libraries\\STM32F4xx_StdPeriph_Driver\\src\\stm32f4xx_rtc.c 0x00000000   Number         0  stm32f4xx_rtc.o ABSOLUTE
    ..\\..\\..\\..\\Libraries\\STM32F4xx_StdPeriph_Driver\\src\\stm32f4xx_sdio.c 0x00000000   Number         0  stm32f4xx_sdio.o ABSOLUTE
    ..\\..\\..\\..\\Libraries\\STM32F4xx_StdPeriph_Driver\\src\\stm32f4xx_spi.c 0x00000000   Number         0  stm32f4xx_spi.o ABSOLUTE
    ..\\..\\..\\..\\Libraries\\STM32F4xx_StdPeriph_Driver\\src\\stm32f4xx_syscfg.c 0x00000000   Number         0  stm32f4xx_syscfg.o ABSOLUTE
    ..\\..\\..\\..\\Libraries\\STM32F4xx_StdPeriph_Driver\\src\\stm32f4xx_usart.c 0x00000000   Number         0  stm32f4xx_usart.o ABSOLUTE
    ..\\Core\\Core.c                         0x00000000   Number         0  core.o ABSOLUTE
    ..\\FATFS\\src\\diskio.c                 0x00000000   Number         0  diskio.o ABSOLUTE
    ..\\FATFS\\src\\ff.c                     0x00000000   Number         0  ff.o ABSOLUTE
    ..\\Flash\\flash.c                       0x00000000   Number         0  flash.o ABSOLUTE
    ..\\FormManager\\FormManager.c           0x00000000   Number         0  formmanager.o ABSOLUTE
    ..\\LCD\\AsciiLib.c                      0x00000000   Number         0  asciilib.o ABSOLUTE
    ..\\LCD\\Drivers\\src\\ILI9481.c         0x00000000   Number         0  ili9481.o ABSOLUTE
    ..\\LCD\\LCD.c                           0x00000000   Number         0  lcd.o ABSOLUTE
    ..\\PWR\\PWR.c                           0x00000000   Number         0  pwr.o ABSOLUTE
    ..\\RTC\\RTC_Time.c                      0x00000000   Number         0  rtc_time.o ABSOLUTE
    ..\\SDIO\\stm324xg_eval.c                0x00000000   Number         0  stm324xg_eval.o ABSOLUTE
    ..\\SDIO\\stm324xg_eval_sdio_sd.c        0x00000000   Number         0  stm324xg_eval_sdio_sd.o ABSOLUTE
    ..\\SD\\SDUser.c                         0x00000000   Number         0  sduser.o ABSOLUTE
    ..\\TouchPanel\\TouchPanel.c             0x00000000   Number         0  touchpanel.o ABSOLUTE
    ..\\UserControls\\UserControls_Button.c  0x00000000   Number         0  usercontrols_button.o ABSOLUTE
    ..\\UserControls\\UserControls_CheckBox.c 0x00000000   Number         0  usercontrols_checkbox.o ABSOLUTE
    ..\\UserControls\\UserControls_ListBox.c 0x00000000   Number         0  usercontrols_listbox.o ABSOLUTE
    ..\\UserControls\\UserControls_MessageBox.c 0x00000000   Number         0  usercontrols_messagebox.o ABSOLUTE
    ..\\UserControls\\UserControls_RadioButton.c 0x00000000   Number         0  usercontrols_radiobutton.o ABSOLUTE
    ..\\UserControls\\UserControls_ValueRegulator.c 0x00000000   Number         0  usercontrols_valueregulator.o ABSOLUTE
    ..\\main.c                               0x00000000   Number         0  main.o ABSOLUTE
    ..\\stm32f4xx_it.c                       0x00000000   Number         0  stm32f4xx_it.o ABSOLUTE
    ..\\system_stm32f4xx.c                   0x00000000   Number         0  system_stm32f4xx.o ABSOLUTE
    ..\main.c                                0x00000000   Number         0  main.o ABSOLUTE
    ..\stm32f4xx_it.c                        0x00000000   Number         0  stm32f4xx_it.o ABSOLUTE
    ..\system_stm32f4xx.c                    0x00000000   Number         0  system_stm32f4xx.o ABSOLUTE
    cdcmple.s                                0x00000000   Number         0  cdcmple.o ABSOLUTE
    cdrcmple.s                               0x00000000   Number         0  cdrcmple.o ABSOLUTE
    dc.s                                     0x00000000   Number         0  dc.o ABSOLUTE
    handlers.s                               0x00000000   Number         0  handlers.o ABSOLUTE
    init.s                                   0x00000000   Number         0  init.o ABSOLUTE
    RESET                                    0x08000000   Section      392  startup_stm32f4xx.o(RESET)
    .ARM.Collect$$$$00000000                 0x08000188   Section        0  entry.o(.ARM.Collect$$$$00000000)
    .ARM.Collect$$$$00000001                 0x08000188   Section        4  entry2.o(.ARM.Collect$$$$00000001)
    .ARM.Collect$$$$00000004                 0x0800018c   Section        4  entry5.o(.ARM.Collect$$$$00000004)
    .ARM.Collect$$$$00000008                 0x08000190   Section        0  entry7b.o(.ARM.Collect$$$$00000008)
    .ARM.Collect$$$$00000009                 0x08000190   Section        8  entry8.o(.ARM.Collect$$$$00000009)
    .ARM.Collect$$$$00002712                 0x08000198   Section        4  entry2.o(.ARM.Collect$$$$00002712)
    __lit__00000000                          0x08000198   Data           4  entry2.o(.ARM.Collect$$$$00002712)
    .text                                    0x0800019c   Section       36  startup_stm32f4xx.o(.text)
    .text                                    0x080001c0   Section        0  memcpya.o(.text)
    .text                                    0x080001e4   Section        0  memseta.o(.text)
    .text                                    0x08000208   Section        0  strcat.o(.text)
    .text                                    0x08000224   Section        0  strlen.o(.text)
    .text                                    0x08000234   Section        0  strcmp.o(.text)
    .text                                    0x08000250   Section        0  strcpy.o(.text)
    .text                                    0x08000262   Section        0  atoi.o(.text)
    .text                                    0x0800027c   Section        0  dadd.o(.text)
    .text                                    0x080003ca   Section        0  dmul.o(.text)
    .text                                    0x080004ae   Section        0  ddiv.o(.text)
    .text                                    0x0800058c   Section        0  dflti.o(.text)
    .text                                    0x080005ae   Section        0  dfltui.o(.text)
    .text                                    0x080005c8   Section        0  dfixi.o(.text)
    .text                                    0x08000606   Section        0  dfixui.o(.text)
    .text                                    0x08000638   Section       40  cdcmple.o(.text)
    .text                                    0x08000660   Section        0  uidiv.o(.text)
    .text                                    0x0800068c   Section        0  llshl.o(.text)
    .text                                    0x080006aa   Section        0  llushr.o(.text)
    .text                                    0x080006ca   Section        0  llsshr.o(.text)
    .text                                    0x080006f0   Section        0  strtod.o(.text)
    _local_sscanf                            0x080006f1   Thumb Code    54  strtod.o(.text)
    .text                                    0x0800078c   Section        0  strtol.o(.text)
    .text                                    0x080007fc   Section        0  iusefp.o(.text)
    .text                                    0x080007fc   Section        0  depilogue.o(.text)
    .text                                    0x080008bc   Section       36  init.o(.text)
    .text                                    0x080008e0   Section        0  ctype_o.o(.text)
    .text                                    0x080008e8   Section        0  isspace_o.o(.text)
    .text                                    0x080008fc   Section        0  scanf_fp.o(.text)
    _fp_value                                0x080008fd   Thumb Code   256  scanf_fp.o(.text)
    .text                                    0x08000c38   Section        0  _sgetc.o(.text)
    .text                                    0x08000c78   Section        0  _strtoul.o(.text)
    .text                                    0x08000d16   Section        0  _chval.o(.text)
    .text                                    0x08000d32   Section        0  dfltul.o(.text)
    .text                                    0x08000d4a   Section        0  d2f.o(.text)
    .text                                    0x08000d82   Section        0  fepilogue.o(.text)
    i.BusFault_Handler                       0x08000dee   Section        0  stm32f4xx_it.o(i.BusFault_Handler)
    i.Clock_GetTime                          0x08000df0   Section        0  rtc_time.o(i.Clock_GetTime)
    i.CmdResp1Error                          0x08000e14   Section        0  stm324xg_eval_sdio_sd.o(i.CmdResp1Error)
    CmdResp1Error                            0x08000e15   Thumb Code   228  stm324xg_eval_sdio_sd.o(i.CmdResp1Error)
    i.CmdResp2Error                          0x08000f00   Section        0  stm324xg_eval_sdio_sd.o(i.CmdResp2Error)
    CmdResp2Error                            0x08000f01   Thumb Code    50  stm324xg_eval_sdio_sd.o(i.CmdResp2Error)
    i.CmdResp6Error                          0x08000f38   Section        0  stm324xg_eval_sdio_sd.o(i.CmdResp6Error)
    CmdResp6Error                            0x08000f39   Thumb Code   112  stm324xg_eval_sdio_sd.o(i.CmdResp6Error)
    i.DMA2_Stream3_IRQHandler                0x08000fac   Section        0  stm32f4xx_it.o(i.DMA2_Stream3_IRQHandler)
    i.DMA_ClearFlag                          0x08000fb0   Section        0  stm32f4xx_dma.o(i.DMA_ClearFlag)
    i.DMA_Cmd                                0x08000fdc   Section        0  stm32f4xx_dma.o(i.DMA_Cmd)
    i.DMA_DeInit                             0x08000ff0   Section        0  stm32f4xx_dma.o(i.DMA_DeInit)
    i.DMA_FlowControllerConfig               0x08001114   Section        0  stm32f4xx_dma.o(i.DMA_FlowControllerConfig)
    i.DMA_ITConfig                           0x08001128   Section        0  stm32f4xx_dma.o(i.DMA_ITConfig)
    i.DMA_Init                               0x08001154   Section        0  stm32f4xx_dma.o(i.DMA_Init)
    i.DebugMon_Handler                       0x080011a8   Section        0  stm32f4xx_it.o(i.DebugMon_Handler)
    i.DelayUS                                0x080011aa   Section        0  touchpanel.o(i.DelayUS)
    DelayUS                                  0x080011ab   Thumb Code    26  touchpanel.o(i.DelayUS)
    i.DrawClock                              0x080011c4   Section        0  formmanager.o(i.DrawClock)
    i.DrawCross                              0x08001338   Section        0  touchpanel.o(i.DrawCross)
    i.EXTI0_IRQHandler                       0x08001438   Section        0  stm32f4xx_it.o(i.EXTI0_IRQHandler)
    i.EXTI4_IRQHandler                       0x08001450   Section        0  stm32f4xx_it.o(i.EXTI4_IRQHandler)
    i.EXTI_ClearITPendingBit                 0x08001468   Section        0  stm32f4xx_exti.o(i.EXTI_ClearITPendingBit)
    i.EXTI_GetITStatus                       0x08001474   Section        0  stm32f4xx_exti.o(i.EXTI_GetITStatus)
    i.EXTI_Init                              0x08001494   Section        0  stm32f4xx_exti.o(i.EXTI_Init)
    i.FLASH_ClearFlag                        0x08001504   Section        0  stm32f4xx_flash.o(i.FLASH_ClearFlag)
    i.FLASH_EraseSector                      0x08001510   Section        0  stm32f4xx_flash.o(i.FLASH_EraseSector)
    i.FLASH_GetStatus                        0x0800157c   Section        0  stm32f4xx_flash.o(i.FLASH_GetStatus)
    i.FLASH_Lock                             0x080015b0   Section        0  stm32f4xx_flash.o(i.FLASH_Lock)
    i.FLASH_ProgramWord                      0x080015c0   Section        0  stm32f4xx_flash.o(i.FLASH_ProgramWord)
    i.FLASH_Unlock                           0x080015fc   Section        0  stm32f4xx_flash.o(i.FLASH_Unlock)
    i.FLASH_WaitForLastOperation             0x08001620   Section        0  stm32f4xx_flash.o(i.FLASH_WaitForLastOperation)
    i.FSMC_NORSRAMCmd                        0x08001630   Section        0  stm32f4xx_fsmc.o(i.FSMC_NORSRAMCmd)
    i.FSMC_NORSRAMInit                       0x08001650   Section        0  stm32f4xx_fsmc.o(i.FSMC_NORSRAMInit)
    i.FindSCR                                0x08001710   Section        0  stm324xg_eval_sdio_sd.o(i.FindSCR)
    FindSCR                                  0x08001711   Thumb Code   296  stm324xg_eval_sdio_sd.o(i.FindSCR)
    i.FlashFirmware                          0x08001844   Section        0  flash.o(i.FlashFirmware)
    i.Form_Handle                            0x080020cc   Section        0  formmanager.o(i.Form_Handle)
    i.Form_Show                              0x080021ec   Section        0  formmanager.o(i.Form_Show)
    i.GPIO_Init                              0x08002204   Section        0  stm32f4xx_gpio.o(i.GPIO_Init)
    i.GPIO_PinAFConfig                       0x080022a6   Section        0  stm32f4xx_gpio.o(i.GPIO_PinAFConfig)
    i.GPIO_ReadInputDataBit                  0x080022c6   Section        0  stm32f4xx_gpio.o(i.GPIO_ReadInputDataBit)
    i.GPIO_ResetBits                         0x080022d4   Section        0  stm32f4xx_gpio.o(i.GPIO_ResetBits)
    i.GPIO_SetBits                           0x080022d8   Section        0  stm32f4xx_gpio.o(i.GPIO_SetBits)
    i.GUI_Circle                             0x080022dc   Section        0  lcd.o(i.GUI_Circle)
    i.GUI_DrawImage                          0x0800238c   Section        0  lcd.o(i.GUI_DrawImage)
    i.GUI_DrawImageWithReplace               0x080023d2   Section        0  lcd.o(i.GUI_DrawImageWithReplace)
    i.GUI_DrawImageWithReplace_SD            0x08002420   Section        0  lcd.o(i.GUI_DrawImageWithReplace_SD)
    i.GUI_DrawImage_SD                       0x080024e0   Section        0  lcd.o(i.GUI_DrawImage_SD)
    i.GUI_DrawInvertImage                    0x08002594   Section        0  lcd.o(i.GUI_DrawInvertImage)
    i.GUI_DrawInvertImage_SD                 0x080025bc   Section        0  lcd.o(i.GUI_DrawInvertImage_SD)
    i.GUI_FillCircle                         0x080025e4   Section        0  lcd.o(i.GUI_FillCircle)
    i.GUI_FillRectEllipce                    0x080025e6   Section        0  lcd.o(i.GUI_FillRectEllipce)
    i.GUI_Line                               0x080026c2   Section        0  lcd.o(i.GUI_Line)
    i.GUI_PutChar                            0x080027a4   Section        0  lcd.o(i.GUI_PutChar)
    i.GUI_Rect                               0x0800287c   Section        0  lcd.o(i.GUI_Rect)
    i.GUI_RectEllipce                        0x080028d8   Section        0  lcd.o(i.GUI_RectEllipce)
    i.GUI_SmartClear                         0x080029f8   Section        0  lcd.o(i.GUI_SmartClear)
    i.GUI_Text                               0x08002a34   Section        0  lcd.o(i.GUI_Text)
    i.GetASCIICode                           0x08002a9c   Section        0  asciilib.o(i.GetASCIICode)
    i.GetCharHeight                          0x08002ad8   Section        0  asciilib.o(i.GetCharHeight)
    i.GetCharSize                            0x08002af0   Section        0  asciilib.o(i.GetCharSize)
    i.GetCharWidth                           0x08002b28   Section        0  asciilib.o(i.GetCharWidth)
    i.GetFont                                0x08002b58   Section        0  asciilib.o(i.GetFont)
    i.GetSector                              0x08002b64   Section        0  flash.o(i.GetSector)
    i.GetWidth                               0x08002c20   Section        0  asciilib.o(i.GetWidth)
    i.Get_Select_Form                        0x08002c3c   Section        0  formmanager.o(i.Get_Select_Form)
    i.HardFault_Handler                      0x08002c48   Section        0  stm32f4xx_it.o(i.HardFault_Handler)
    i.LCD_CS_Init                            0x08002c4c   Section        0  ili9481.o(i.LCD_CS_Init)
    LCD_CS_Init                              0x08002c4d   Thumb Code   142  ili9481.o(i.LCD_CS_Init)
    i.LCD_Clear                              0x08002ce4   Section        0  ili9481.o(i.LCD_Clear)
    i.LCD_CtrlLinesConfig                    0x08002d20   Section        0  ili9481.o(i.LCD_CtrlLinesConfig)
    LCD_CtrlLinesConfig                      0x08002d21   Thumb Code   276  ili9481.o(i.LCD_CtrlLinesConfig)
    i.LCD_Enter_Invert_Mode                  0x08002e3c   Section        0  ili9481.o(i.LCD_Enter_Invert_Mode)
    i.LCD_Enter_Normal_Mode                  0x08002e46   Section        0  ili9481.o(i.LCD_Enter_Normal_Mode)
    i.LCD_Enter_Sleep_Mode                   0x08002e50   Section        0  ili9481.o(i.LCD_Enter_Sleep_Mode)
    i.LCD_Exit_Invert_Mode                   0x08002e5a   Section        0  ili9481.o(i.LCD_Exit_Invert_Mode)
    i.LCD_Exit_Sleep_Mode                    0x08002e64   Section        0  ili9481.o(i.LCD_Exit_Sleep_Mode)
    i.LCD_FSMCConfig                         0x08002e6e   Section        0  ili9481.o(i.LCD_FSMCConfig)
    LCD_FSMCConfig                           0x08002e6f   Thumb Code    76  ili9481.o(i.LCD_FSMCConfig)
    i.LCD_FillRect                           0x08002ebc   Section        0  ili9481.o(i.LCD_FillRect)
    i.LCD_GetPoint                           0x08002f64   Section        0  ili9481.o(i.LCD_GetPoint)
    i.LCD_HardwareScroll                     0x08002fb8   Section        0  ili9481.o(i.LCD_HardwareScroll)
    i.LCD_HardwareScroll_Position            0x08003010   Section        0  ili9481.o(i.LCD_HardwareScroll_Position)
    i.LCD_HardwareScroll_Position_Reset      0x0800301c   Section        0  ili9481.o(i.LCD_HardwareScroll_Position_Reset)
    i.LCD_Hardware_InvertMode_Off            0x08003054   Section        0  ili9481.o(i.LCD_Hardware_InvertMode_Off)
    i.LCD_Hardware_InvertMode_On             0x08003060   Section        0  ili9481.o(i.LCD_Hardware_InvertMode_On)
    i.LCD_Initialization                     0x0800306c   Section        0  ili9481.o(i.LCD_Initialization)
    i.LCD_Led_Off                            0x080031a0   Section        0  ili9481.o(i.LCD_Led_Off)
    i.LCD_Led_On                             0x080031b0   Section        0  ili9481.o(i.LCD_Led_On)
    i.LCD_OFF                                0x080031c0   Section        0  ili9481.o(i.LCD_OFF)
    i.LCD_ON                                 0x080031ca   Section        0  ili9481.o(i.LCD_ON)
    i.LCD_ReadData                           0x080031d4   Section        0  ili9481.o(i.LCD_ReadData)
    i.LCD_ReadReg                            0x080031e0   Section        0  ili9481.o(i.LCD_ReadReg)
    i.LCD_SetCursor                          0x080031f0   Section        0  ili9481.o(i.LCD_SetCursor)
    i.LCD_SetPoint                           0x08003218   Section        0  ili9481.o(i.LCD_SetPoint)
    i.LCD_WriteData                          0x08003268   Section        0  ili9481.o(i.LCD_WriteData)
    i.LCD_WriteIndex                         0x08003274   Section        0  ili9481.o(i.LCD_WriteIndex)
    i.LCD_WriteReg                           0x0800327c   Section        0  ili9481.o(i.LCD_WriteReg)
    i.LCD_delay                              0x0800328c   Section        0  ili9481.o(i.LCD_delay)
    LCD_delay                                0x0800328d   Thumb Code    28  ili9481.o(i.LCD_delay)
    i.LoadCalibrate                          0x080032a8   Section        0  touchpanel.o(i.LoadCalibrate)
    i.MemManage_Handler                      0x08003448   Section        0  stm32f4xx_it.o(i.MemManage_Handler)
    i.MessageBox_GetResult                   0x0800344c   Section        0  usercontrols_messagebox.o(i.MessageBox_GetResult)
    i.MessageBox_GetVisible                  0x08003458   Section        0  usercontrols_messagebox.o(i.MessageBox_GetVisible)
    i.MessageBox_Handle                      0x08003464   Section        0  usercontrols_messagebox.o(i.MessageBox_Handle)
    i.MessageBox_Hide                        0x0800356c   Section        0  usercontrols_messagebox.o(i.MessageBox_Hide)
    i.MessageBox_ResetResult                 0x08003594   Section        0  usercontrols_messagebox.o(i.MessageBox_ResetResult)
    i.MessageBox_Show                        0x080035a0   Section        0  usercontrols_messagebox.o(i.MessageBox_Show)
    i.MessageBox_Show_Procedure              0x080035c8   Section        0  usercontrols_messagebox.o(i.MessageBox_Show_Procedure)
    i.NMI_Handler                            0x08003798   Section        0  stm32f4xx_it.o(i.NMI_Handler)
    i.NVIC_Init                              0x0800379c   Section        0  misc.o(i.NVIC_Init)
    i.NVIC_PriorityGroupConfig               0x08003800   Section        0  misc.o(i.NVIC_PriorityGroupConfig)
    i.NVIC_SetVectorTable                    0x08003814   Section        0  misc.o(i.NVIC_SetVectorTable)
    i.PWR_BackupAccessCmd                    0x08003828   Section        0  stm32f4xx_pwr.o(i.PWR_BackupAccessCmd)
    i.PWR_CheckStartupCalibrate              0x08003834   Section        0  pwr.o(i.PWR_CheckStartupCalibrate)
    i.PWR_ClearFlag                          0x08003850   Section        0  stm32f4xx_pwr.o(i.PWR_ClearFlag)
    i.PWR_EnterSTANDBYMode                   0x08003860   Section        0  stm32f4xx_pwr.o(i.PWR_EnterSTANDBYMode)
    i.PWR_GetFlagStatus                      0x08003888   Section        0  stm32f4xx_pwr.o(i.PWR_GetFlagStatus)
    i.PWR_GoToSleep                          0x0800389c   Section        0  pwr.o(i.PWR_GoToSleep)
    i.PWR_InitButtons                        0x080038b0   Section        0  pwr.o(i.PWR_InitButtons)
    i.PWR_WakeUpPinCmd                       0x080038f8   Section        0  stm32f4xx_pwr.o(i.PWR_WakeUpPinCmd)
    i.PendSV_Handler                         0x08003904   Section        0  stm32f4xx_it.o(i.PendSV_Handler)
    i.RCC_AHB1PeriphClockCmd                 0x08003908   Section        0  stm32f4xx_rcc.o(i.RCC_AHB1PeriphClockCmd)
    i.RCC_AHB3PeriphClockCmd                 0x08003920   Section        0  stm32f4xx_rcc.o(i.RCC_AHB3PeriphClockCmd)
    i.RCC_APB1PeriphClockCmd                 0x08003938   Section        0  stm32f4xx_rcc.o(i.RCC_APB1PeriphClockCmd)
    i.RCC_APB1PeriphResetCmd                 0x08003950   Section        0  stm32f4xx_rcc.o(i.RCC_APB1PeriphResetCmd)
    i.RCC_APB2PeriphClockCmd                 0x08003968   Section        0  stm32f4xx_rcc.o(i.RCC_APB2PeriphClockCmd)
    i.RCC_APB2PeriphResetCmd                 0x08003980   Section        0  stm32f4xx_rcc.o(i.RCC_APB2PeriphResetCmd)
    i.RCC_BackupResetCmd                     0x08003998   Section        0  stm32f4xx_rcc.o(i.RCC_BackupResetCmd)
    i.RCC_GetFlagStatus                      0x080039a4   Section        0  stm32f4xx_rcc.o(i.RCC_GetFlagStatus)
    i.RCC_LSEConfig                          0x080039d8   Section        0  stm32f4xx_rcc.o(i.RCC_LSEConfig)
    i.RCC_RTCCLKCmd                          0x080039f4   Section        0  stm32f4xx_rcc.o(i.RCC_RTCCLKCmd)
    i.RCC_RTCCLKConfig                       0x08003a00   Section        0  stm32f4xx_rcc.o(i.RCC_RTCCLKConfig)
    i.RD_AD                                  0x08003a30   Section        0  touchpanel.o(i.RD_AD)
    RD_AD                                    0x08003a31   Thumb Code   102  touchpanel.o(i.RD_AD)
    i.RTC_Bcd2ToByte                         0x08003a9c   Section        0  stm32f4xx_rtc.o(i.RTC_Bcd2ToByte)
    RTC_Bcd2ToByte                           0x08003a9d   Thumb Code    18  stm32f4xx_rtc.o(i.RTC_Bcd2ToByte)
    i.RTC_ByteToBcd2                         0x08003aae   Section        0  stm32f4xx_rtc.o(i.RTC_ByteToBcd2)
    RTC_ByteToBcd2                           0x08003aaf   Thumb Code    24  stm32f4xx_rtc.o(i.RTC_ByteToBcd2)
    i.RTC_ClearFlag                          0x08003ac8   Section        0  stm32f4xx_rtc.o(i.RTC_ClearFlag)
    i.RTC_Config                             0x08003ae4   Section        0  rtc_time.o(i.RTC_Config)
    i.RTC_EnterInitMode                      0x08003b28   Section        0  stm32f4xx_rtc.o(i.RTC_EnterInitMode)
    i.RTC_ExitInitMode                       0x08003b5c   Section        0  stm32f4xx_rtc.o(i.RTC_ExitInitMode)
    i.RTC_GetTime                            0x08003b6c   Section        0  stm32f4xx_rtc.o(i.RTC_GetTime)
    i.RTC_Init                               0x08003bb8   Section        0  stm32f4xx_rtc.o(i.RTC_Init)
    i.RTC_ReadBackupRegister                 0x08003c08   Section        0  stm32f4xx_rtc.o(i.RTC_ReadBackupRegister)
    i.RTC_SetTime                            0x08003c14   Section        0  stm32f4xx_rtc.o(i.RTC_SetTime)
    i.RTC_TimeRegulate                       0x08003cb0   Section        0  rtc_time.o(i.RTC_TimeRegulate)
    i.RTC_Time_Init                          0x08003d08   Section        0  rtc_time.o(i.RTC_Time_Init)
    i.RTC_WaitForSynchro                     0x08003da4   Section        0  stm32f4xx_rtc.o(i.RTC_WaitForSynchro)
    i.RTC_WriteBackupRegister                0x08003de8   Section        0  stm32f4xx_rtc.o(i.RTC_WriteBackupRegister)
    i.Read_Ads7846                           0x08003df4   Section        0  touchpanel.o(i.Read_Ads7846)
    i.Read_Bat                               0x08003f28   Section        0  touchpanel.o(i.Read_Bat)
    i.Read_X                                 0x08003f5c   Section        0  touchpanel.o(i.Read_X)
    i.Read_Y                                 0x08003f90   Section        0  touchpanel.o(i.Read_Y)
    i.SDEnWideBus                            0x08003fc4   Section        0  stm324xg_eval_sdio_sd.o(i.SDEnWideBus)
    SDEnWideBus                              0x08003fc5   Thumb Code   182  stm324xg_eval_sdio_sd.o(i.SDEnWideBus)
    i.SDIO_ClearFlag                         0x08004084   Section        0  stm32f4xx_sdio.o(i.SDIO_ClearFlag)
    i.SDIO_ClearITPendingBit                 0x08004090   Section        0  stm32f4xx_sdio.o(i.SDIO_ClearITPendingBit)
    i.SDIO_ClockCmd                          0x0800409c   Section        0  stm32f4xx_sdio.o(i.SDIO_ClockCmd)
    i.SDIO_DMACmd                            0x080040a8   Section        0  stm32f4xx_sdio.o(i.SDIO_DMACmd)
    i.SDIO_DataConfig                        0x080040b4   Section        0  stm32f4xx_sdio.o(i.SDIO_DataConfig)
    i.SDIO_GetCommandResponse                0x080040e4   Section        0  stm32f4xx_sdio.o(i.SDIO_GetCommandResponse)
    i.SDIO_GetFlagStatus                     0x080040f0   Section        0  stm32f4xx_sdio.o(i.SDIO_GetFlagStatus)
    i.SDIO_GetITStatus                       0x08004104   Section        0  stm32f4xx_sdio.o(i.SDIO_GetITStatus)
    i.SDIO_GetPowerState                     0x08004118   Section        0  stm32f4xx_sdio.o(i.SDIO_GetPowerState)
    i.SDIO_GetResponse                       0x08004128   Section        0  stm32f4xx_sdio.o(i.SDIO_GetResponse)
    i.SDIO_IRQHandler                        0x08004134   Section        0  stm32f4xx_it.o(i.SDIO_IRQHandler)
    i.SDIO_ITConfig                          0x08004138   Section        0  stm32f4xx_sdio.o(i.SDIO_ITConfig)
    i.SDIO_Init                              0x08004150   Section        0  stm32f4xx_sdio.o(i.SDIO_Init)
    i.SDIO_ReadData                          0x0800417c   Section        0  stm32f4xx_sdio.o(i.SDIO_ReadData)
    i.SDIO_SendCommand                       0x08004188   Section        0  stm32f4xx_sdio.o(i.SDIO_SendCommand)
    i.SDIO_SetPowerState                     0x080041b0   Section        0  stm32f4xx_sdio.o(i.SDIO_SetPowerState)
    i.SD_Detect                              0x080041bc   Section        0  stm324xg_eval_sdio_sd.o(i.SD_Detect)
    i.SD_EnableWideBusOperation              0x080041d4   Section        0  stm324xg_eval_sdio_sd.o(i.SD_EnableWideBusOperation)
    i.SD_GetCardInfo                         0x08004248   Section        0  stm324xg_eval_sdio_sd.o(i.SD_GetCardInfo)
    i.SD_GetState                            0x080044a4   Section        0  stm324xg_eval_sdio_sd.o(i.SD_GetState)
    i.SD_GetStatus                           0x080044c6   Section        0  stm324xg_eval_sdio_sd.o(i.SD_GetStatus)
    i.SD_Init                                0x080044e0   Section        0  stm324xg_eval_sdio_sd.o(i.SD_Init)
    i.SD_InitializeCards                     0x0800453c   Section        0  stm324xg_eval_sdio_sd.o(i.SD_InitializeCards)
    i.SD_LowLevel_DMA_RxConfig               0x0800463c   Section        0  stm324xg_eval.o(i.SD_LowLevel_DMA_RxConfig)
    i.SD_LowLevel_DMA_TxConfig               0x080046c4   Section        0  stm324xg_eval.o(i.SD_LowLevel_DMA_TxConfig)
    i.SD_LowLevel_Init                       0x0800474c   Section        0  stm324xg_eval.o(i.SD_LowLevel_Init)
    i.SD_NVIC_Configuration                  0x0800480c   Section        0  stm324xg_eval.o(i.SD_NVIC_Configuration)
    i.SD_PowerON                             0x08004844   Section        0  stm324xg_eval_sdio_sd.o(i.SD_PowerON)
    i.SD_ProcessDMAIRQ                       0x08004a08   Section        0  stm324xg_eval_sdio_sd.o(i.SD_ProcessDMAIRQ)
    i.SD_ProcessIRQSrc                       0x08004a30   Section        0  stm324xg_eval_sdio_sd.o(i.SD_ProcessIRQSrc)
    i.SD_ReadMultiBlocks                     0x08004ac0   Section        0  stm324xg_eval_sdio_sd.o(i.SD_ReadMultiBlocks)
    i.SD_SelectDeselect                      0x08004b7c   Section        0  stm324xg_eval_sdio_sd.o(i.SD_SelectDeselect)
    i.SD_SendStatus                          0x08004ba8   Section        0  stm324xg_eval_sdio_sd.o(i.SD_SendStatus)
    i.SD_StopTransfer                        0x08004bf0   Section        0  stm324xg_eval_sdio_sd.o(i.SD_StopTransfer)
    i.SD_WaitReadOperation                   0x08004c18   Section        0  stm324xg_eval_sdio_sd.o(i.SD_WaitReadOperation)
    i.SD_WaitWriteOperation                  0x08004c84   Section        0  stm324xg_eval_sdio_sd.o(i.SD_WaitWriteOperation)
    i.SD_WriteMultiBlocks                    0x08004cf0   Section        0  stm324xg_eval_sdio_sd.o(i.SD_WriteMultiBlocks)
    i.SPI_Cmd                                0x08004e08   Section        0  stm32f4xx_spi.o(i.SPI_Cmd)
    i.SPI_I2S_DeInit                         0x08004e1c   Section        0  stm32f4xx_spi.o(i.SPI_I2S_DeInit)
    i.SPI_I2S_GetFlagStatus                  0x08004e70   Section        0  stm32f4xx_spi.o(i.SPI_I2S_GetFlagStatus)
    i.SPI_I2S_ReceiveData                    0x08004e7e   Section        0  stm32f4xx_spi.o(i.SPI_I2S_ReceiveData)
    i.SPI_I2S_SendData                       0x08004e82   Section        0  stm32f4xx_spi.o(i.SPI_I2S_SendData)
    i.SPI_Init                               0x08004e86   Section        0  stm32f4xx_spi.o(i.SPI_Init)
    i.SVC_Handler                            0x08004ebe   Section        0  stm32f4xx_it.o(i.SVC_Handler)
    i.SYSCFG_EXTILineConfig                  0x08004ec0   Section        0  stm32f4xx_syscfg.o(i.SYSCFG_EXTILineConfig)
    i.SaveCalibrate                          0x08004ee8   Section        0  touchpanel.o(i.SaveCalibrate)
    i.SetFont                                0x0800508c   Section        0  asciilib.o(i.SetFont)
    i.SetSysClock                            0x0800509c   Section        0  system_stm32f4xx.o(i.SetSysClock)
    SetSysClock                              0x0800509d   Thumb Code   140  system_stm32f4xx.o(i.SetSysClock)
    i.SysTick_Handler                        0x08005138   Section        0  stm32f4xx_it.o(i.SysTick_Handler)
    i.SystemInit                             0x08005170   Section        0  system_stm32f4xx.o(i.SystemInit)
    i.TP_DrawPoint                           0x080051c0   Section        0  touchpanel.o(i.TP_DrawPoint)
    i.TP_GetAdXY                             0x080051f2   Section        0  touchpanel.o(i.TP_GetAdXY)
    i.TP_Init                                0x08005210   Section        0  touchpanel.o(i.TP_Init)
    i.TP_SwitchOff                           0x08005340   Section        0  touchpanel.o(i.TP_SwitchOff)
    i.TouchPanel_Calibrate                   0x08005370   Section        0  touchpanel.o(i.TouchPanel_Calibrate)
    i.UsageFault_Handler                     0x08005428   Section        0  stm32f4xx_it.o(i.UsageFault_Handler)
    i.UserControls_Button_Add                0x0800542c   Section        0  usercontrols_button.o(i.UserControls_Button_Add)
    i.UserControls_Button_AddWithSize        0x080054d4   Section        0  usercontrols_button.o(i.UserControls_Button_AddWithSize)
    i.UserControls_Button_Clear              0x08005560   Section        0  usercontrols_button.o(i.UserControls_Button_Clear)
    i.UserControls_Button_Draw               0x0800556c   Section        0  usercontrols_button.o(i.UserControls_Button_Draw)
    i.UserControls_Button_DrawSTDsize        0x08005626   Section        0  usercontrols_button.o(i.UserControls_Button_DrawSTDsize)
    i.UserControls_Button_GetControl         0x080056a8   Section        0  usercontrols_button.o(i.UserControls_Button_GetControl)
    i.UserControls_Button_GetLastControl     0x08005734   Section        0  usercontrols_button.o(i.UserControls_Button_GetLastControl)
    i.UserControls_Button_Handle             0x08005764   Section        0  usercontrols_button.o(i.UserControls_Button_Handle)
    i.UserControls_Button_RedrawAll          0x08005838   Section        0  usercontrols_button.o(i.UserControls_Button_RedrawAll)
    i.UserControls_Button_RedrawControls     0x08005878   Section        0  usercontrols_button.o(i.UserControls_Button_RedrawControls)
    i.UserControls_Button_SizeOffset         0x080058a4   Section        0  usercontrols_button.o(i.UserControls_Button_SizeOffset)
    i.UserControls_CheckBox_Add              0x080058c0   Section        0  usercontrols_checkbox.o(i.UserControls_CheckBox_Add)
    i.UserControls_CheckBox_Clear            0x08005934   Section        0  usercontrols_checkbox.o(i.UserControls_CheckBox_Clear)
    i.UserControls_CheckBox_Draw             0x08005940   Section        0  usercontrols_checkbox.o(i.UserControls_CheckBox_Draw)
    i.UserControls_CheckBox_Get              0x08005988   Section        0  usercontrols_checkbox.o(i.UserControls_CheckBox_Get)
    i.UserControls_CheckBox_Handle           0x0800599c   Section        0  usercontrols_checkbox.o(i.UserControls_CheckBox_Handle)
    i.UserControls_ListBox_Active            0x08005a54   Section        0  usercontrols_listbox.o(i.UserControls_ListBox_Active)
    i.UserControls_ListBox_Add               0x08005a60   Section        0  usercontrols_listbox.o(i.UserControls_ListBox_Add)
    i.UserControls_ListBox_Clear             0x08005adc   Section        0  usercontrols_listbox.o(i.UserControls_ListBox_Clear)
    i.UserControls_ListBox_Draw              0x08005b08   Section        0  usercontrols_listbox.o(i.UserControls_ListBox_Draw)
    i.UserControls_ListBox_GetText           0x08005b5c   Section        0  usercontrols_listbox.o(i.UserControls_ListBox_GetText)
    i.UserControls_ListBox_Handle            0x08005b8c   Section        0  usercontrols_listbox.o(i.UserControls_ListBox_Handle)
    i.UserControls_ListBox_Item_Draw         0x08005e24   Section        0  usercontrols_listbox.o(i.UserControls_ListBox_Item_Draw)
    i.UserControls_ListBox_Items_Add         0x08005f00   Section        0  usercontrols_listbox.o(i.UserControls_ListBox_Items_Add)
    i.UserControls_ListBox_NextPage          0x08005f88   Section        0  usercontrols_listbox.o(i.UserControls_ListBox_NextPage)
    i.UserControls_ListBox_PageCount         0x08005fb8   Section        0  usercontrols_listbox.o(i.UserControls_ListBox_PageCount)
    i.UserControls_ListBox_PageItems         0x08005fdc   Section        0  usercontrols_listbox.o(i.UserControls_ListBox_PageItems)
    i.UserControls_ListBox_PrevPage          0x08006004   Section        0  usercontrols_listbox.o(i.UserControls_ListBox_PrevPage)
    i.UserControls_RadioButton_Add           0x08006024   Section        0  usercontrols_radiobutton.o(i.UserControls_RadioButton_Add)
    i.UserControls_RadioButton_Clear         0x080060e4   Section        0  usercontrols_radiobutton.o(i.UserControls_RadioButton_Clear)
    i.UserControls_RadioButton_Draw          0x080060f0   Section        0  usercontrols_radiobutton.o(i.UserControls_RadioButton_Draw)
    i.UserControls_RadioButton_GetDigitFromIndex 0x08006130   Section        0  usercontrols_radiobutton.o(i.UserControls_RadioButton_GetDigitFromIndex)
    i.UserControls_RadioButton_GetTextFromIndex 0x08006158   Section        0  usercontrols_radiobutton.o(i.UserControls_RadioButton_GetTextFromIndex)
    i.UserControls_RadioButton_Handle        0x0800617c   Section        0  usercontrols_radiobutton.o(i.UserControls_RadioButton_Handle)
    i.UserControls_RadioButton_Set           0x080061b4   Section        0  usercontrols_radiobutton.o(i.UserControls_RadioButton_Set)
    i.UserControls_ValueRegulator_Add        0x08006210   Section        0  usercontrols_valueregulator.o(i.UserControls_ValueRegulator_Add)
    i.UserControls_ValueRegulator_Clear      0x0800629c   Section        0  usercontrols_valueregulator.o(i.UserControls_ValueRegulator_Clear)
    i.UserControls_ValueRegulator_Draw       0x080062a8   Section        0  usercontrols_valueregulator.o(i.UserControls_ValueRegulator_Draw)
    i.UserControls_ValueRegulator_Handle     0x08006388   Section        0  usercontrols_valueregulator.o(i.UserControls_ValueRegulator_Handle)
    i.WR_CMD                                 0x080064d8   Section        0  touchpanel.o(i.WR_CMD)
    WR_CMD                                   0x080064d9   Thumb Code    48  touchpanel.o(i.WR_CMD)
    i._Form_Main_Show                        0x0800650c   Section        0  formmanager.o(i._Form_Main_Show)
    _Form_Main_Show                          0x0800650d   Thumb Code   250  formmanager.o(i._Form_Main_Show)
    i._Form_Menu_Show                        0x08006684   Section        0  formmanager.o(i._Form_Menu_Show)
    _Form_Menu_Show                          0x08006685   Thumb Code   256  formmanager.o(i._Form_Menu_Show)
    i._PWR_InitDownButton                    0x0800680c   Section        0  pwr.o(i._PWR_InitDownButton)
    i._PWR_InitUpButton                      0x08006874   Section        0  pwr.o(i._PWR_InitUpButton)
    i.__0sprintf$6                           0x080068d8   Section        0  printf6.o(i.__0sprintf$6)
    i.__aeabi_errno_addr                     0x08006900   Section        0  errno.o(i.__aeabi_errno_addr)
    i.__read_errno                           0x08006908   Section        0  errno.o(i.__read_errno)
    i.__scatterload_copy                     0x08006914   Section       14  handlers.o(i.__scatterload_copy)
    i.__scatterload_null                     0x08006922   Section        2  handlers.o(i.__scatterload_null)
    i.__scatterload_zeroinit                 0x08006924   Section       14  handlers.o(i.__scatterload_zeroinit)
    i.__set_errno                            0x08006934   Section        0  errno.o(i.__set_errno)
    i._btnStart                              0x08006940   Section        0  formmanager.o(i._btnStart)
    _btnStart                                0x08006941   Thumb Code    46  formmanager.o(i._btnStart)
    i._getNum                                0x08006974   Section        0  usercontrols_radiobutton.o(i._getNum)
    _getNum                                  0x08006975   Thumb Code    98  usercontrols_radiobutton.o(i._getNum)
    i._is_digit                              0x080069e0   Section        0  scanf_fp.o(i._is_digit)
    i._loadPrevious                          0x080069f0   Section        0  formmanager.o(i._loadPrevious)
    _loadPrevious                            0x080069f1   Thumb Code    78  formmanager.o(i._loadPrevious)
    i._printf_core                           0x08006a4c   Section        0  printf6.o(i._printf_core)
    _printf_core                             0x08006a4d   Thumb Code   750  printf6.o(i._printf_core)
    i._printf_post_padding                   0x08006d40   Section        0  printf6.o(i._printf_post_padding)
    _printf_post_padding                     0x08006d41   Thumb Code    38  printf6.o(i._printf_post_padding)
    i._printf_pre_padding                    0x08006d66   Section        0  printf6.o(i._printf_pre_padding)
    _printf_pre_padding                      0x08006d67   Thumb Code    48  printf6.o(i._printf_pre_padding)
    i._refresh                               0x08006d98   Section        0  usercontrols_radiobutton.o(i._refresh)
    _refresh                                 0x08006d99   Thumb Code    56  usercontrols_radiobutton.o(i._refresh)
    i._saveClockSettings                     0x08006ddc   Section        0  formmanager.o(i._saveClockSettings)
    _saveClockSettings                       0x08006ddd   Thumb Code     8  formmanager.o(i._saveClockSettings)
    i._sputc                                 0x08006de8   Section        0  printf6.o(i._sputc)
    _sputc                                   0x08006de9   Thumb Code    10  printf6.o(i._sputc)
    i.atof                                   0x08006df2   Section        0  atof.o(i.atof)
    i.check_fs                               0x08006e1c   Section        0  ff.o(i.check_fs)
    check_fs                                 0x08006e1d   Thumb Code    86  ff.o(i.check_fs)
    i.chk_chr                                0x08006e78   Section        0  ff.o(i.chk_chr)
    chk_chr                                  0x08006e79   Thumb Code    16  ff.o(i.chk_chr)
    i.chk_mounted                            0x08006e88   Section        0  ff.o(i.chk_mounted)
    chk_mounted                              0x08006e89   Thumb Code   546  ff.o(i.chk_mounted)
    i.clust2sect                             0x080070b8   Section        0  ff.o(i.clust2sect)
    i.create_chain                           0x080070d0   Section        0  ff.o(i.create_chain)
    create_chain                             0x080070d1   Thumb Code   150  ff.o(i.create_chain)
    i.create_name                            0x08007168   Section        0  ff.o(i.create_name)
    create_name                              0x08007169   Thumb Code   488  ff.o(i.create_name)
    i.dir_find                               0x08007368   Section        0  ff.o(i.dir_find)
    dir_find                                 0x08007369   Thumb Code   302  ff.o(i.dir_find)
    i.dir_next                               0x0800749c   Section        0  ff.o(i.dir_next)
    dir_next                                 0x0800749d   Thumb Code   260  ff.o(i.dir_next)
    i.dir_read                               0x080075a0   Section        0  ff.o(i.dir_read)
    dir_read                                 0x080075a1   Thumb Code   244  ff.o(i.dir_read)
    i.dir_register                           0x08007698   Section        0  ff.o(i.dir_register)
    dir_register                             0x08007699   Thumb Code   424  ff.o(i.dir_register)
    i.dir_remove                             0x08007844   Section        0  ff.o(i.dir_remove)
    dir_remove                               0x08007845   Thumb Code    80  ff.o(i.dir_remove)
    i.dir_sdi                                0x08007894   Section        0  ff.o(i.dir_sdi)
    dir_sdi                                  0x08007895   Thumb Code   160  ff.o(i.dir_sdi)
    i.disk_initialize                        0x08007934   Section        0  diskio.o(i.disk_initialize)
    i.disk_ioctl                             0x08007946   Section        0  diskio.o(i.disk_ioctl)
    i.disk_read                              0x08007968   Section        0  diskio.o(i.disk_read)
    i.disk_status                            0x0800798e   Section        0  diskio.o(i.disk_status)
    i.disk_write                             0x08007996   Section        0  diskio.o(i.disk_write)
    i.f_chmod                                0x080079bc   Section        0  ff.o(i.f_chmod)
    i.f_close                                0x08007a0c   Section        0  ff.o(i.f_close)
    i.f_getfree                              0x08007a1e   Section        0  ff.o(i.f_getfree)
    i.f_gets                                 0x08007ae0   Section        0  ff.o(i.f_gets)
    i.f_lseek                                0x08007b28   Section        0  ff.o(i.f_lseek)
    i.f_mkdir                                0x08007c6e   Section        0  ff.o(i.f_mkdir)
    i.f_mkfs                                 0x08007dd0   Section        0  ff.o(i.f_mkfs)
    i.f_mount                                0x080082f0   Section        0  ff.o(i.f_mount)
    i.f_open                                 0x08008310   Section        0  ff.o(i.f_open)
    i.f_opendir                              0x0800844a   Section        0  ff.o(i.f_opendir)
    i.f_printf                               0x080084aa   Section        0  ff.o(i.f_printf)
    i.f_putc                                 0x0800869e   Section        0  ff.o(i.f_putc)
    i.f_puts                                 0x080086ca   Section        0  ff.o(i.f_puts)
    i.f_read                                 0x080086f2   Section        0  ff.o(i.f_read)
    i.f_readdir                              0x08008854   Section        0  ff.o(i.f_readdir)
    i.f_rename                               0x080088aa   Section        0  ff.o(i.f_rename)
    i.f_stat                                 0x080089a8   Section        0  ff.o(i.f_stat)
    i.f_sync                                 0x080089e6   Section        0  ff.o(i.f_sync)
    i.f_truncate                             0x08008a7e   Section        0  ff.o(i.f_truncate)
    i.f_unlink                               0x08008b0a   Section        0  ff.o(i.f_unlink)
    i.f_utime                                0x08008bb0   Section        0  ff.o(i.f_utime)
    i.f_write                                0x08008c04   Section        0  ff.o(i.f_write)
    i.ff_convert                             0x08008da8   Section        0  ccsbcs.o(i.ff_convert)
    i.ff_wtoupper                            0x08008de0   Section        0  ccsbcs.o(i.ff_wtoupper)
    i.follow_path                            0x08008e04   Section        0  ff.o(i.follow_path)
    follow_path                              0x08008e05   Thumb Code   102  ff.o(i.follow_path)
    i.gen_numname                            0x08008e6c   Section        0  ff.o(i.gen_numname)
    i.getDisplayPoint                        0x08008ed8   Section        0  touchpanel.o(i.getDisplayPoint)
    i.get_fat                                0x08008f88   Section        0  ff.o(i.get_fat)
    i.get_fattime                            0x0800906c   Section        0  fattime.o(i.get_fattime)
    i.get_fileinfo                           0x08009070   Section        0  ff.o(i.get_fileinfo)
    get_fileinfo                             0x08009071   Thumb Code   208  ff.o(i.get_fileinfo)
    i.ld_clust                               0x08009140   Section        0  ff.o(i.ld_clust)
    ld_clust                                 0x08009141   Thumb Code    18  ff.o(i.ld_clust)
    i.main                                   0x08009154   Section        0  main.o(i.main)
    i.mem_cpy                                0x0800919c   Section        0  ff.o(i.mem_cpy)
    mem_cpy                                  0x0800919d   Thumb Code    18  ff.o(i.mem_cpy)
    i.mem_set                                0x080091ae   Section        0  ff.o(i.mem_set)
    mem_set                                  0x080091af   Thumb Code    14  ff.o(i.mem_set)
    i.move_window                            0x080091bc   Section        0  ff.o(i.move_window)
    move_window                              0x080091bd   Thumb Code    46  ff.o(i.move_window)
    i.put_fat                                0x080091ec   Section        0  ff.o(i.put_fat)
    i.remove_chain                           0x08009312   Section        0  ff.o(i.remove_chain)
    remove_chain                             0x08009313   Thumb Code    98  ff.o(i.remove_chain)
    i.scan_files                             0x08009374   Section        0  sduser.o(i.scan_files)
    i.scan_programs                          0x08009400   Section        0  sduser.o(i.scan_programs)
    i.setCalibrationMatrix                   0x08009418   Section        0  touchpanel.o(i.setCalibrationMatrix)
    i.st_clust                               0x08009562   Section        0  ff.o(i.st_clust)
    st_clust                                 0x08009563   Thumb Code    16  ff.o(i.st_clust)
    i.sum_sfn                                0x08009572   Section        0  ff.o(i.sum_sfn)
    sum_sfn                                  0x08009573   Thumb Code    26  ff.o(i.sum_sfn)
    i.sync_fs                                0x0800958c   Section        0  ff.o(i.sync_fs)
    sync_fs                                  0x0800958d   Thumb Code   182  ff.o(i.sync_fs)
    i.sync_window                            0x08009642   Section        0  ff.o(i.sync_window)
    sync_window                              0x08009643   Thumb Code    84  ff.o(i.sync_window)
    i.validate                               0x08009696   Section        0  ff.o(i.validate)
    validate                                 0x08009697   Thumb Code    38  ff.o(i.validate)
    .constdata                               0x080096bc   Section     3360  asciilib.o(.constdata)
    .constdata                               0x0800a3dc   Section      186  ff.o(.constdata)
    ExCvt                                    0x0800a3dc   Data         128  ff.o(.constdata)
    LfnOfs                                   0x0800a45c   Data          13  ff.o(.constdata)
    vst                                      0x0800a46a   Data          22  ff.o(.constdata)
    cst                                      0x0800a480   Data          22  ff.o(.constdata)
    .constdata                               0x0800a498   Section       15  sduser.o(.constdata)
    .constdata                               0x0800a4a8   Section     1216  ccsbcs.o(.constdata)
    Tbl                                      0x0800a4a8   Data         256  ccsbcs.o(.constdata)
    tbl_lower                                0x0800a5a8   Data         480  ccsbcs.o(.constdata)
    tbl_upper                                0x0800a788   Data         480  ccsbcs.o(.constdata)
    .constdata                               0x0800a968   Section       67  usercontrols_button.o(.constdata)
    .constdata                               0x0800a9ac   Section     1352  usercontrols_radiobutton.o(.constdata)
    .constdata                               0x0800aef4   Section       50  formmanager.o(.constdata)
    .constdata                               0x0800af26   Section      129  ctype_o.o(.constdata)
    .constdata                               0x0800afa8   Section        4  ctype_o.o(.constdata)
    table                                    0x0800afa8   Data           4  ctype_o.o(.constdata)
    .data                                    0x20000000   Section        4  stm32f4xx_it.o(.data)
    .data                                    0x20000004   Section       20  system_stm32f4xx.o(.data)
    .data                                    0x20000018   Section        1  asciilib.o(.data)
    _selectFont                              0x20000018   Data           1  asciilib.o(.data)
    .data                                    0x2000001c   Section        8  ili9481.o(.data)
    _useInvertColor                          0x2000001c   Data           1  ili9481.o(.data)
    _scrollPos                               0x20000020   Data           4  ili9481.o(.data)
    .data                                    0x20000024   Section       24  stm324xg_eval_sdio_sd.o(.data)
    CardType                                 0x20000028   Data           4  stm324xg_eval_sdio_sd.o(.data)
    RCA                                      0x2000002c   Data           4  stm324xg_eval_sdio_sd.o(.data)
    .data                                    0x2000003c   Section        8  ff.o(.data)
    Fsid                                     0x2000003c   Data           2  ff.o(.data)
    FatFs                                    0x20000040   Data           4  ff.o(.data)
    .data                                    0x20000044   Section        1  sduser.o(.data)
    .data                                    0x20000045   Section        1  usercontrols_button.o(.data)
    _maxNumb                                 0x20000045   Data           1  usercontrols_button.o(.data)
    .data                                    0x20000046   Section        2  usercontrols_checkbox.o(.data)
    _maxNumb                                 0x20000046   Data           1  usercontrols_checkbox.o(.data)
    iterator                                 0x20000047   Data           1  usercontrols_checkbox.o(.data)
    .data                                    0x20000048   Section       16  usercontrols_listbox.o(.data)
    _active                                  0x20000048   Data           1  usercontrols_listbox.o(.data)
    _last                                    0x20000054   Data           4  usercontrols_listbox.o(.data)
    .data                                    0x20000058   Section       16  usercontrols_messagebox.o(.data)
    _visible                                 0x20000058   Data           1  usercontrols_messagebox.o(.data)
    _result                                  0x20000059   Data           1  usercontrols_messagebox.o(.data)
    _but1Pressed                             0x2000005a   Data           1  usercontrols_messagebox.o(.data)
    _but2Pressed                             0x2000005b   Data           1  usercontrols_messagebox.o(.data)
    _textLen                                 0x2000005c   Data           1  usercontrols_messagebox.o(.data)
    _titleLen                                0x2000005d   Data           1  usercontrols_messagebox.o(.data)
    _buttEnbl                                0x2000005e   Data           2  usercontrols_messagebox.o(.data)
    _title                                   0x20000060   Data           4  usercontrols_messagebox.o(.data)
    _text                                    0x20000064   Data           4  usercontrols_messagebox.o(.data)
    .data                                    0x20000068   Section        2  usercontrols_radiobutton.o(.data)
    _maxNumb                                 0x20000068   Data           1  usercontrols_radiobutton.o(.data)
    iterator                                 0x20000069   Data           1  usercontrols_radiobutton.o(.data)
    .data                                    0x2000006a   Section        4  usercontrols_valueregulator.o(.data)
    _maxNumb                                 0x2000006a   Data           1  usercontrols_valueregulator.o(.data)
    iterator                                 0x2000006b   Data           1  usercontrols_valueregulator.o(.data)
    _lenTotalText                            0x2000006c   Data           1  usercontrols_valueregulator.o(.data)
    _lastLenTotalText                        0x2000006d   Data           1  usercontrols_valueregulator.o(.data)
    .data                                    0x20000070   Section       16  flash.o(.data)
    settingsAddress                          0x2000007c   Data           4  flash.o(.data)
    .data                                    0x20000080   Section       16  touchpanel.o(.data)
    screen                                   0x20000080   Data           4  touchpanel.o(.data)
    .data                                    0x20000090   Section        4  touchpanel.o(.data)
    .data                                    0x20000094   Section       16  formmanager.o(.data)
    last                                     0x20000095   Data           1  formmanager.o(.data)
    wasPressed                               0x20000096   Data           1  formmanager.o(.data)
    .data                                    0x200000a4   Section       12  rtc_time.o(.data)
    .data                                    0x200000b0   Section        4  errno.o(.data)
    _errno                                   0x200000b0   Data           4  errno.o(.data)
    .bss                                     0x200000b8   Section      204  stm324xg_eval_sdio_sd.o(.bss)
    CSD_Tab                                  0x200000b8   Data          16  stm324xg_eval_sdio_sd.o(.bss)
    CID_Tab                                  0x200000c8   Data          16  stm324xg_eval_sdio_sd.o(.bss)
    SDSTATUS_Tab                             0x200000d8   Data          16  stm324xg_eval_sdio_sd.o(.bss)
    .bss                                     0x20000184   Section       27  sduser.o(.bss)
    lfn                                      0x20000184   Data          27  sduser.o(.bss)
    .bss                                     0x200001a0   Section     1076  sduser.o(.bss)
    .bss                                     0x200005d4   Section     1060  sduser.o(.bss)
    .bss                                     0x200009f8   Section     1400  usercontrols_button.o(.bss)
    _controls                                0x200009f8   Data        1400  usercontrols_button.o(.bss)
    .bss                                     0x20000f70   Section     1400  usercontrols_checkbox.o(.bss)
    _controls                                0x20000f70   Data        1400  usercontrols_checkbox.o(.bss)
    .bss                                     0x200014e8   Section     1040  usercontrols_listbox.o(.bss)
    _controls                                0x200014e8   Data        1040  usercontrols_listbox.o(.bss)
    .bss                                     0x200018f8   Section     1130  usercontrols_radiobutton.o(.bss)
    _controls                                0x200018f8   Data        1120  usercontrols_radiobutton.o(.bss)
    _lastNumb                                0x20001d58   Data          10  usercontrols_radiobutton.o(.bss)
    .bss                                     0x20001d64   Section     1450  usercontrols_valueregulator.o(.bss)
    _controls                                0x20001d64   Data        1400  usercontrols_valueregulator.o(.bss)
    _totalText                               0x200022dc   Data          50  usercontrols_valueregulator.o(.bss)
    .bss                                     0x20002310   Section       68  touchpanel.o(.bss)
    .bss                                     0x20002354   Section       12  rtc_time.o(.bss)
    STACK                                    0x20002360   Section     1024  startup_stm32f4xx.o(STACK)

    Global Symbols

    Symbol Name                              Value     Ov Type        Size  Object(Section)

    BuildAttributes$$THM_ISAv4$E$P$D$K$B$S$7EM$PE$A:L22UL41UL21$X:L11$S22US41US21$IEEE1$IW$USESV6$~STKCKD$USESV7$~SHL$OTIME$ROPI$IEEEJ$EBA8$MICROLIB$REQ8$PRES8$EABIv2 0x00000000   Number         0  anon$$obj.o ABSOLUTE
    __ARM_use_no_argv                        0x00000000   Number         0  main.o ABSOLUTE
    _printf_a                                0x00000000   Number         0  stubs.o ABSOLUTE
    _printf_c                                0x00000000   Number         0  stubs.o ABSOLUTE
    _printf_charcount                        0x00000000   Number         0  stubs.o ABSOLUTE
    _printf_d                                0x00000000   Number         0  stubs.o ABSOLUTE
    _printf_e                                0x00000000   Number         0  stubs.o ABSOLUTE
    _printf_f                                0x00000000   Number         0  stubs.o ABSOLUTE
    _printf_flags                            0x00000000   Number         0  stubs.o ABSOLUTE
    _printf_fp_dec                           0x00000000   Number         0  stubs.o ABSOLUTE
    _printf_fp_hex                           0x00000000   Number         0  stubs.o ABSOLUTE
    _printf_g                                0x00000000   Number         0  stubs.o ABSOLUTE
    _printf_i                                0x00000000   Number         0  stubs.o ABSOLUTE
    _printf_int_dec                          0x00000000   Number         0  stubs.o ABSOLUTE
    _printf_l                                0x00000000   Number         0  stubs.o ABSOLUTE
    _printf_lc                               0x00000000   Number         0  stubs.o ABSOLUTE
    _printf_ll                               0x00000000   Number         0  stubs.o ABSOLUTE
    _printf_lld                              0x00000000   Number         0  stubs.o ABSOLUTE
    _printf_lli                              0x00000000   Number         0  stubs.o ABSOLUTE
    _printf_llo                              0x00000000   Number         0  stubs.o ABSOLUTE
    _printf_llu                              0x00000000   Number         0  stubs.o ABSOLUTE
    _printf_llx                              0x00000000   Number         0  stubs.o ABSOLUTE
    _printf_longlong_dec                     0x00000000   Number         0  stubs.o ABSOLUTE
    _printf_longlong_hex                     0x00000000   Number         0  stubs.o ABSOLUTE
    _printf_longlong_oct                     0x00000000   Number         0  stubs.o ABSOLUTE
    _printf_ls                               0x00000000   Number         0  stubs.o ABSOLUTE
    _printf_mbtowc                           0x00000000   Number         0  stubs.o ABSOLUTE
    _printf_n                                0x00000000   Number         0  stubs.o ABSOLUTE
    _printf_o                                0x00000000   Number         0  stubs.o ABSOLUTE
    _printf_p                                0x00000000   Number         0  stubs.o ABSOLUTE
    _printf_percent                          0x00000000   Number         0  stubs.o ABSOLUTE
    _printf_pre_padding                      0x00000000   Number         0  stubs.o ABSOLUTE
    _printf_return_value                     0x00000000   Number         0  stubs.o ABSOLUTE
    _printf_s                                0x00000000   Number         0  stubs.o ABSOLUTE
    _printf_sizespec                         0x00000000   Number         0  stubs.o ABSOLUTE
    _printf_str                              0x00000000   Number         0  stubs.o ABSOLUTE
    _printf_truncate_signed                  0x00000000   Number         0  stubs.o ABSOLUTE
    _printf_truncate_unsigned                0x00000000   Number         0  stubs.o ABSOLUTE
    _printf_u                                0x00000000   Number         0  stubs.o ABSOLUTE
    _printf_wc                               0x00000000   Number         0  stubs.o ABSOLUTE
    _printf_wctomb                           0x00000000   Number         0  stubs.o ABSOLUTE
    _printf_widthprec                        0x00000000   Number         0  stubs.o ABSOLUTE
    _printf_x                                0x00000000   Number         0  stubs.o ABSOLUTE
    __decompress                              - Undefined Weak Reference
    _clock_init                               - Undefined Weak Reference
    __Vectors_Size                           0x00000188   Number         0  startup_stm32f4xx.o ABSOLUTE
    __Vectors                                0x08000000   Data           4  startup_stm32f4xx.o(RESET)
    __Vectors_End                            0x08000188   Data           0  startup_stm32f4xx.o(RESET)
    __main                                   0x08000189   Thumb Code     0  entry.o(.ARM.Collect$$$$00000000)
    _main_stk                                0x08000189   Thumb Code     0  entry2.o(.ARM.Collect$$$$00000001)
    _main_scatterload                        0x0800018d   Thumb Code     0  entry5.o(.ARM.Collect$$$$00000004)
    __main_after_scatterload                 0x08000191   Thumb Code     0  entry5.o(.ARM.Collect$$$$00000004)
    _main_clock                              0x08000191   Thumb Code     0  entry7b.o(.ARM.Collect$$$$00000008)
    _main_init                               0x08000191   Thumb Code     0  entry8.o(.ARM.Collect$$$$00000009)
    Reset_Handler                            0x0800019d   Thumb Code     8  startup_stm32f4xx.o(.text)
    ADC_IRQHandler                           0x080001b7   Thumb Code     0  startup_stm32f4xx.o(.text)
    CAN1_RX0_IRQHandler                      0x080001b7   Thumb Code     0  startup_stm32f4xx.o(.text)
    CAN1_RX1_IRQHandler                      0x080001b7   Thumb Code     0  startup_stm32f4xx.o(.text)
    CAN1_SCE_IRQHandler                      0x080001b7   Thumb Code     0  startup_stm32f4xx.o(.text)
    CAN1_TX_IRQHandler                       0x080001b7   Thumb Code     0  startup_stm32f4xx.o(.text)
    CAN2_RX0_IRQHandler                      0x080001b7   Thumb Code     0  startup_stm32f4xx.o(.text)
    CAN2_RX1_IRQHandler                      0x080001b7   Thumb Code     0  startup_stm32f4xx.o(.text)
    CAN2_SCE_IRQHandler                      0x080001b7   Thumb Code     0  startup_stm32f4xx.o(.text)
    CAN2_TX_IRQHandler                       0x080001b7   Thumb Code     0  startup_stm32f4xx.o(.text)
    CRYP_IRQHandler                          0x080001b7   Thumb Code     0  startup_stm32f4xx.o(.text)
    DCMI_IRQHandler                          0x080001b7   Thumb Code     0  startup_stm32f4xx.o(.text)
    DMA1_Stream0_IRQHandler                  0x080001b7   Thumb Code     0  startup_stm32f4xx.o(.text)
    DMA1_Stream1_IRQHandler                  0x080001b7   Thumb Code     0  startup_stm32f4xx.o(.text)
    DMA1_Stream2_IRQHandler                  0x080001b7   Thumb Code     0  startup_stm32f4xx.o(.text)
    DMA1_Stream3_IRQHandler                  0x080001b7   Thumb Code     0  startup_stm32f4xx.o(.text)
    DMA1_Stream4_IRQHandler                  0x080001b7   Thumb Code     0  startup_stm32f4xx.o(.text)
    DMA1_Stream5_IRQHandler                  0x080001b7   Thumb Code     0  startup_stm32f4xx.o(.text)
    DMA1_Stream6_IRQHandler                  0x080001b7   Thumb Code     0  startup_stm32f4xx.o(.text)
    DMA1_Stream7_IRQHandler                  0x080001b7   Thumb Code     0  startup_stm32f4xx.o(.text)
    DMA2_Stream0_IRQHandler                  0x080001b7   Thumb Code     0  startup_stm32f4xx.o(.text)
    DMA2_Stream1_IRQHandler                  0x080001b7   Thumb Code     0  startup_stm32f4xx.o(.text)
    DMA2_Stream2_IRQHandler                  0x080001b7   Thumb Code     0  startup_stm32f4xx.o(.text)
    DMA2_Stream4_IRQHandler                  0x080001b7   Thumb Code     0  startup_stm32f4xx.o(.text)
    DMA2_Stream5_IRQHandler                  0x080001b7   Thumb Code     0  startup_stm32f4xx.o(.text)
    DMA2_Stream6_IRQHandler                  0x080001b7   Thumb Code     0  startup_stm32f4xx.o(.text)
    DMA2_Stream7_IRQHandler                  0x080001b7   Thumb Code     0  startup_stm32f4xx.o(.text)
    ETH_IRQHandler                           0x080001b7   Thumb Code     0  startup_stm32f4xx.o(.text)
    ETH_WKUP_IRQHandler                      0x080001b7   Thumb Code     0  startup_stm32f4xx.o(.text)
    EXTI15_10_IRQHandler                     0x080001b7   Thumb Code     0  startup_stm32f4xx.o(.text)
    EXTI1_IRQHandler                         0x080001b7   Thumb Code     0  startup_stm32f4xx.o(.text)
    EXTI2_IRQHandler                         0x080001b7   Thumb Code     0  startup_stm32f4xx.o(.text)
    EXTI3_IRQHandler                         0x080001b7   Thumb Code     0  startup_stm32f4xx.o(.text)
    EXTI9_5_IRQHandler                       0x080001b7   Thumb Code     0  startup_stm32f4xx.o(.text)
    FLASH_IRQHandler                         0x080001b7   Thumb Code     0  startup_stm32f4xx.o(.text)
    FPU_IRQHandler                           0x080001b7   Thumb Code     0  startup_stm32f4xx.o(.text)
    FSMC_IRQHandler                          0x080001b7   Thumb Code     0  startup_stm32f4xx.o(.text)
    HASH_RNG_IRQHandler                      0x080001b7   Thumb Code     0  startup_stm32f4xx.o(.text)
    I2C1_ER_IRQHandler                       0x080001b7   Thumb Code     0  startup_stm32f4xx.o(.text)
    I2C1_EV_IRQHandler                       0x080001b7   Thumb Code     0  startup_stm32f4xx.o(.text)
    I2C2_ER_IRQHandler                       0x080001b7   Thumb Code     0  startup_stm32f4xx.o(.text)
    I2C2_EV_IRQHandler                       0x080001b7   Thumb Code     0  startup_stm32f4xx.o(.text)
    I2C3_ER_IRQHandler                       0x080001b7   Thumb Code     0  startup_stm32f4xx.o(.text)
    I2C3_EV_IRQHandler                       0x080001b7   Thumb Code     0  startup_stm32f4xx.o(.text)
    OTG_FS_IRQHandler                        0x080001b7   Thumb Code     0  startup_stm32f4xx.o(.text)
    OTG_FS_WKUP_IRQHandler                   0x080001b7   Thumb Code     0  startup_stm32f4xx.o(.text)
    OTG_HS_EP1_IN_IRQHandler                 0x080001b7   Thumb Code     0  startup_stm32f4xx.o(.text)
    OTG_HS_EP1_OUT_IRQHandler                0x080001b7   Thumb Code     0  startup_stm32f4xx.o(.text)
    OTG_HS_IRQHandler                        0x080001b7   Thumb Code     0  startup_stm32f4xx.o(.text)
    OTG_HS_WKUP_IRQHandler                   0x080001b7   Thumb Code     0  startup_stm32f4xx.o(.text)
    PVD_IRQHandler                           0x080001b7   Thumb Code     0  startup_stm32f4xx.o(.text)
    RCC_IRQHandler                           0x080001b7   Thumb Code     0  startup_stm32f4xx.o(.text)
    RTC_Alarm_IRQHandler                     0x080001b7   Thumb Code     0  startup_stm32f4xx.o(.text)
    RTC_WKUP_IRQHandler                      0x080001b7   Thumb Code     0  startup_stm32f4xx.o(.text)
    SPI1_IRQHandler                          0x080001b7   Thumb Code     0  startup_stm32f4xx.o(.text)
    SPI2_IRQHandler                          0x080001b7   Thumb Code     0  startup_stm32f4xx.o(.text)
    SPI3_IRQHandler                          0x080001b7   Thumb Code     0  startup_stm32f4xx.o(.text)
    TAMP_STAMP_IRQHandler                    0x080001b7   Thumb Code     0  startup_stm32f4xx.o(.text)
    TIM1_BRK_TIM9_IRQHandler                 0x080001b7   Thumb Code     0  startup_stm32f4xx.o(.text)
    TIM1_CC_IRQHandler                       0x080001b7   Thumb Code     0  startup_stm32f4xx.o(.text)
    TIM1_TRG_COM_TIM11_IRQHandler            0x080001b7   Thumb Code     0  startup_stm32f4xx.o(.text)
    TIM1_UP_TIM10_IRQHandler                 0x080001b7   Thumb Code     0  startup_stm32f4xx.o(.text)
    TIM2_IRQHandler                          0x080001b7   Thumb Code     0  startup_stm32f4xx.o(.text)
    TIM3_IRQHandler                          0x080001b7   Thumb Code     0  startup_stm32f4xx.o(.text)
    TIM4_IRQHandler                          0x080001b7   Thumb Code     0  startup_stm32f4xx.o(.text)
    TIM5_IRQHandler                          0x080001b7   Thumb Code     0  startup_stm32f4xx.o(.text)
    TIM6_DAC_IRQHandler                      0x080001b7   Thumb Code     0  startup_stm32f4xx.o(.text)
    TIM7_IRQHandler                          0x080001b7   Thumb Code     0  startup_stm32f4xx.o(.text)
    TIM8_BRK_TIM12_IRQHandler                0x080001b7   Thumb Code     0  startup_stm32f4xx.o(.text)
    TIM8_CC_IRQHandler                       0x080001b7   Thumb Code     0  startup_stm32f4xx.o(.text)
    TIM8_TRG_COM_TIM14_IRQHandler            0x080001b7   Thumb Code     0  startup_stm32f4xx.o(.text)
    TIM8_UP_TIM13_IRQHandler                 0x080001b7   Thumb Code     0  startup_stm32f4xx.o(.text)
    UART4_IRQHandler                         0x080001b7   Thumb Code     0  startup_stm32f4xx.o(.text)
    UART5_IRQHandler                         0x080001b7   Thumb Code     0  startup_stm32f4xx.o(.text)
    USART1_IRQHandler                        0x080001b7   Thumb Code     0  startup_stm32f4xx.o(.text)
    USART2_IRQHandler                        0x080001b7   Thumb Code     0  startup_stm32f4xx.o(.text)
    USART3_IRQHandler                        0x080001b7   Thumb Code     0  startup_stm32f4xx.o(.text)
    USART6_IRQHandler                        0x080001b7   Thumb Code     0  startup_stm32f4xx.o(.text)
    WWDG_IRQHandler                          0x080001b7   Thumb Code     0  startup_stm32f4xx.o(.text)
    __aeabi_memcpy                           0x080001c1   Thumb Code    36  memcpya.o(.text)
    __aeabi_memcpy4                          0x080001c1   Thumb Code     0  memcpya.o(.text)
    __aeabi_memcpy8                          0x080001c1   Thumb Code     0  memcpya.o(.text)
    __aeabi_memset                           0x080001e5   Thumb Code    14  memseta.o(.text)
    __aeabi_memset4                          0x080001e5   Thumb Code     0  memseta.o(.text)
    __aeabi_memset8                          0x080001e5   Thumb Code     0  memseta.o(.text)
    __aeabi_memclr                           0x080001f3   Thumb Code     4  memseta.o(.text)
    __aeabi_memclr4                          0x080001f3   Thumb Code     0  memseta.o(.text)
    __aeabi_memclr8                          0x080001f3   Thumb Code     0  memseta.o(.text)
    _memset$wrapper                          0x080001f7   Thumb Code    18  memseta.o(.text)
    strcat                                   0x08000209   Thumb Code    28  strcat.o(.text)
    strlen                                   0x08000225   Thumb Code    16  strlen.o(.text)
    strcmp                                   0x08000235   Thumb Code    28  strcmp.o(.text)
    strcpy                                   0x08000251   Thumb Code    18  strcpy.o(.text)
    atoi                                     0x08000263   Thumb Code    26  atoi.o(.text)
    __aeabi_dadd                             0x0800027d   Thumb Code   322  dadd.o(.text)
    __aeabi_dsub                             0x080003bf   Thumb Code     6  dadd.o(.text)
    __aeabi_drsub                            0x080003c5   Thumb Code     6  dadd.o(.text)
    __aeabi_dmul                             0x080003cb   Thumb Code   228  dmul.o(.text)
    __aeabi_ddiv                             0x080004af   Thumb Code   222  ddiv.o(.text)
    __aeabi_i2d                              0x0800058d   Thumb Code    34  dflti.o(.text)
    __aeabi_ui2d                             0x080005af   Thumb Code    26  dfltui.o(.text)
    __aeabi_d2iz                             0x080005c9   Thumb Code    62  dfixi.o(.text)
    __aeabi_d2uiz                            0x08000607   Thumb Code    50  dfixui.o(.text)
    __aeabi_cdcmpeq                          0x08000639   Thumb Code     0  cdcmple.o(.text)
    __aeabi_cdcmple                          0x08000639   Thumb Code    38  cdcmple.o(.text)
    __aeabi_uidiv                            0x08000661   Thumb Code     0  uidiv.o(.text)
    __aeabi_uidivmod                         0x08000661   Thumb Code    44  uidiv.o(.text)
    __aeabi_llsl                             0x0800068d   Thumb Code    30  llshl.o(.text)
    _ll_shift_l                              0x0800068d   Thumb Code     0  llshl.o(.text)
    __aeabi_llsr                             0x080006ab   Thumb Code    32  llushr.o(.text)
    _ll_ushift_r                             0x080006ab   Thumb Code     0  llushr.o(.text)
    __aeabi_lasr                             0x080006cb   Thumb Code    36  llsshr.o(.text)
    _ll_sshift_r                             0x080006cb   Thumb Code     0  llsshr.o(.text)
    __strtod_int                             0x08000727   Thumb Code    88  strtod.o(.text)
    strtol                                   0x0800078d   Thumb Code   112  strtol.o(.text)
    __I$use$fp                               0x080007fd   Thumb Code     0  iusefp.o(.text)
    _double_round                            0x080007fd   Thumb Code    26  depilogue.o(.text)
    _double_epilogue                         0x08000817   Thumb Code   164  depilogue.o(.text)
    __scatterload                            0x080008bd   Thumb Code    28  init.o(.text)
    __scatterload_rt2                        0x080008bd   Thumb Code     0  init.o(.text)
    __rt_ctype_table                         0x080008e1   Thumb Code     4  ctype_o.o(.text)
    isspace                                  0x080008e9   Thumb Code    18  isspace_o.o(.text)
    _scanf_real                              0x080009fd   Thumb Code     0  scanf_fp.o(.text)
    _scanf_really_real                       0x080009fd   Thumb Code   560  scanf_fp.o(.text)
    _sgetc                                   0x08000c39   Thumb Code    30  _sgetc.o(.text)
    _sbackspace                              0x08000c57   Thumb Code    34  _sgetc.o(.text)
    _strtoul                                 0x08000c79   Thumb Code   158  _strtoul.o(.text)
    _chval                                   0x08000d17   Thumb Code    28  _chval.o(.text)
    __aeabi_ul2d                             0x08000d33   Thumb Code    24  dfltul.o(.text)
    __aeabi_d2f                              0x08000d4b   Thumb Code    56  d2f.o(.text)
    _float_round                             0x08000d83   Thumb Code    18  fepilogue.o(.text)
    _float_epilogue                          0x08000d95   Thumb Code    90  fepilogue.o(.text)
    BusFault_Handler                         0x08000def   Thumb Code     2  stm32f4xx_it.o(i.BusFault_Handler)
    Clock_GetTime                            0x08000df1   Thumb Code    32  rtc_time.o(i.Clock_GetTime)
    DMA2_Stream3_IRQHandler                  0x08000fad   Thumb Code     4  stm32f4xx_it.o(i.DMA2_Stream3_IRQHandler)
    DMA_ClearFlag                            0x08000fb1   Thumb Code    32  stm32f4xx_dma.o(i.DMA_ClearFlag)
    DMA_Cmd                                  0x08000fdd   Thumb Code    20  stm32f4xx_dma.o(i.DMA_Cmd)
    DMA_DeInit                               0x08000ff1   Thumb Code   272  stm32f4xx_dma.o(i.DMA_DeInit)
    DMA_FlowControllerConfig                 0x08001115   Thumb Code    20  stm32f4xx_dma.o(i.DMA_FlowControllerConfig)
    DMA_ITConfig                             0x08001129   Thumb Code    44  stm32f4xx_dma.o(i.DMA_ITConfig)
    DMA_Init                                 0x08001155   Thumb Code    80  stm32f4xx_dma.o(i.DMA_Init)
    DebugMon_Handler                         0x080011a9   Thumb Code     2  stm32f4xx_it.o(i.DebugMon_Handler)
    DrawClock                                0x080011c5   Thumb Code   368  formmanager.o(i.DrawClock)
    DrawCross                                0x08001339   Thumb Code   256  touchpanel.o(i.DrawCross)
    EXTI0_IRQHandler                         0x08001439   Thumb Code    24  stm32f4xx_it.o(i.EXTI0_IRQHandler)
    EXTI4_IRQHandler                         0x08001451   Thumb Code    24  stm32f4xx_it.o(i.EXTI4_IRQHandler)
    EXTI_ClearITPendingBit                   0x08001469   Thumb Code     6  stm32f4xx_exti.o(i.EXTI_ClearITPendingBit)
    EXTI_GetITStatus                         0x08001475   Thumb Code    28  stm32f4xx_exti.o(i.EXTI_GetITStatus)
    EXTI_Init                                0x08001495   Thumb Code   108  stm32f4xx_exti.o(i.EXTI_Init)
    FLASH_ClearFlag                          0x08001505   Thumb Code     6  stm32f4xx_flash.o(i.FLASH_ClearFlag)
    FLASH_EraseSector                        0x08001511   Thumb Code   104  stm32f4xx_flash.o(i.FLASH_EraseSector)
    FLASH_GetStatus                          0x0800157d   Thumb Code    46  stm32f4xx_flash.o(i.FLASH_GetStatus)
    FLASH_Lock                               0x080015b1   Thumb Code    12  stm32f4xx_flash.o(i.FLASH_Lock)
    FLASH_ProgramWord                        0x080015c1   Thumb Code    56  stm32f4xx_flash.o(i.FLASH_ProgramWord)
    FLASH_Unlock                             0x080015fd   Thumb Code    22  stm32f4xx_flash.o(i.FLASH_Unlock)
    FLASH_WaitForLastOperation               0x08001621   Thumb Code    14  stm32f4xx_flash.o(i.FLASH_WaitForLastOperation)
    FSMC_NORSRAMCmd                          0x08001631   Thumb Code    28  stm32f4xx_fsmc.o(i.FSMC_NORSRAMCmd)
    FSMC_NORSRAMInit                         0x08001651   Thumb Code   192  stm32f4xx_fsmc.o(i.FSMC_NORSRAMInit)
    FlashFirmware                            0x08001845   Thumb Code  1998  flash.o(i.FlashFirmware)
    Form_Handle                              0x080020cd   Thumb Code   272  formmanager.o(i.Form_Handle)
    Form_Show                                0x080021ed   Thumb Code    20  formmanager.o(i.Form_Show)
    GPIO_Init                                0x08002205   Thumb Code   162  stm32f4xx_gpio.o(i.GPIO_Init)
    GPIO_PinAFConfig                         0x080022a7   Thumb Code    32  stm32f4xx_gpio.o(i.GPIO_PinAFConfig)
    GPIO_ReadInputDataBit                    0x080022c7   Thumb Code    14  stm32f4xx_gpio.o(i.GPIO_ReadInputDataBit)
    GPIO_ResetBits                           0x080022d5   Thumb Code     4  stm32f4xx_gpio.o(i.GPIO_ResetBits)
    GPIO_SetBits                             0x080022d9   Thumb Code     4  stm32f4xx_gpio.o(i.GPIO_SetBits)
    GUI_Circle                               0x080022dd   Thumb Code   176  lcd.o(i.GUI_Circle)
    GUI_DrawImage                            0x0800238d   Thumb Code    70  lcd.o(i.GUI_DrawImage)
    GUI_DrawImageWithReplace                 0x080023d3   Thumb Code    78  lcd.o(i.GUI_DrawImageWithReplace)
    GUI_DrawImageWithReplace_SD              0x08002421   Thumb Code   146  lcd.o(i.GUI_DrawImageWithReplace_SD)
    GUI_DrawImage_SD                         0x080024e1   Thumb Code   136  lcd.o(i.GUI_DrawImage_SD)
    GUI_DrawInvertImage                      0x08002595   Thumb Code    40  lcd.o(i.GUI_DrawInvertImage)
    GUI_DrawInvertImage_SD                   0x080025bd   Thumb Code    40  lcd.o(i.GUI_DrawInvertImage_SD)
    GUI_FillCircle                           0x080025e5   Thumb Code     2  lcd.o(i.GUI_FillCircle)
    GUI_FillRectEllipce                      0x080025e7   Thumb Code   220  lcd.o(i.GUI_FillRectEllipce)
    GUI_Line                                 0x080026c3   Thumb Code   226  lcd.o(i.GUI_Line)
    GUI_PutChar                              0x080027a5   Thumb Code   216  lcd.o(i.GUI_PutChar)
    GUI_Rect                                 0x0800287d   Thumb Code    92  lcd.o(i.GUI_Rect)
    GUI_RectEllipce                          0x080028d9   Thumb Code   288  lcd.o(i.GUI_RectEllipce)
    GUI_SmartClear                           0x080029f9   Thumb Code    60  lcd.o(i.GUI_SmartClear)
    GUI_Text                                 0x08002a35   Thumb Code   102  lcd.o(i.GUI_Text)
    GetASCIICode                             0x08002a9d   Thumb Code    48  asciilib.o(i.GetASCIICode)
    GetCharHeight                            0x08002ad9   Thumb Code    18  asciilib.o(i.GetCharHeight)
    GetCharSize                              0x08002af1   Thumb Code    48  asciilib.o(i.GetCharSize)
    GetCharWidth                             0x08002b29   Thumb Code    38  asciilib.o(i.GetCharWidth)
    GetFont                                  0x08002b59   Thumb Code     6  asciilib.o(i.GetFont)
    GetSector                                0x08002b65   Thumb Code   146  flash.o(i.GetSector)
    GetWidth                                 0x08002c21   Thumb Code    28  asciilib.o(i.GetWidth)
    Get_Select_Form                          0x08002c3d   Thumb Code     6  formmanager.o(i.Get_Select_Form)
    HardFault_Handler                        0x08002c49   Thumb Code     2  stm32f4xx_it.o(i.HardFault_Handler)
    LCD_Clear                                0x08002ce5   Thumb Code    52  ili9481.o(i.LCD_Clear)
    LCD_Enter_Invert_Mode                    0x08002e3d   Thumb Code    10  ili9481.o(i.LCD_Enter_Invert_Mode)
    LCD_Enter_Normal_Mode                    0x08002e47   Thumb Code    10  ili9481.o(i.LCD_Enter_Normal_Mode)
    LCD_Enter_Sleep_Mode                     0x08002e51   Thumb Code    10  ili9481.o(i.LCD_Enter_Sleep_Mode)
    LCD_Exit_Invert_Mode                     0x08002e5b   Thumb Code    10  ili9481.o(i.LCD_Exit_Invert_Mode)
    LCD_Exit_Sleep_Mode                      0x08002e65   Thumb Code    10  ili9481.o(i.LCD_Exit_Sleep_Mode)
    LCD_FillRect                             0x08002ebd   Thumb Code   158  ili9481.o(i.LCD_FillRect)
    LCD_GetPoint                             0x08002f65   Thumb Code    74  ili9481.o(i.LCD_GetPoint)
    LCD_HardwareScroll                       0x08002fb9   Thumb Code    80  ili9481.o(i.LCD_HardwareScroll)
    LCD_HardwareScroll_Position              0x08003011   Thumb Code     8  ili9481.o(i.LCD_HardwareScroll_Position)
    LCD_HardwareScroll_Position_Reset        0x0800301d   Thumb Code    46  ili9481.o(i.LCD_HardwareScroll_Position_Reset)
    LCD_Hardware_InvertMode_Off              0x08003055   Thumb Code     8  ili9481.o(i.LCD_Hardware_InvertMode_Off)
    LCD_Hardware_InvertMode_On               0x08003061   Thumb Code     8  ili9481.o(i.LCD_Hardware_InvertMode_On)
    LCD_Initialization                       0x0800306d   Thumb Code   298  ili9481.o(i.LCD_Initialization)
    LCD_Led_Off                              0x080031a1   Thumb Code    10  ili9481.o(i.LCD_Led_Off)
    LCD_Led_On                               0x080031b1   Thumb Code    10  ili9481.o(i.LCD_Led_On)
    LCD_OFF                                  0x080031c1   Thumb Code    10  ili9481.o(i.LCD_OFF)
    LCD_ON                                   0x080031cb   Thumb Code    10  ili9481.o(i.LCD_ON)
    LCD_ReadData                             0x080031d5   Thumb Code     6  ili9481.o(i.LCD_ReadData)
    LCD_ReadReg                              0x080031e1   Thumb Code    12  ili9481.o(i.LCD_ReadReg)
    LCD_SetCursor                            0x080031f1   Thumb Code    34  ili9481.o(i.LCD_SetCursor)
    LCD_SetPoint                             0x08003219   Thumb Code    72  ili9481.o(i.LCD_SetPoint)
    LCD_WriteData                            0x08003269   Thumb Code     6  ili9481.o(i.LCD_WriteData)
    LCD_WriteIndex                           0x08003275   Thumb Code     8  ili9481.o(i.LCD_WriteIndex)
    LCD_WriteReg                             0x0800327d   Thumb Code    12  ili9481.o(i.LCD_WriteReg)
    LoadCalibrate                            0x080032a9   Thumb Code   342  touchpanel.o(i.LoadCalibrate)
    MemManage_Handler                        0x08003449   Thumb Code     2  stm32f4xx_it.o(i.MemManage_Handler)
    MessageBox_GetResult                     0x0800344d   Thumb Code     6  usercontrols_messagebox.o(i.MessageBox_GetResult)
    MessageBox_GetVisible                    0x08003459   Thumb Code     6  usercontrols_messagebox.o(i.MessageBox_GetVisible)
    MessageBox_Handle                        0x08003465   Thumb Code   246  usercontrols_messagebox.o(i.MessageBox_Handle)
    MessageBox_Hide                          0x0800356d   Thumb Code    36  usercontrols_messagebox.o(i.MessageBox_Hide)
    MessageBox_ResetResult                   0x08003595   Thumb Code     8  usercontrols_messagebox.o(i.MessageBox_ResetResult)
    MessageBox_Show                          0x080035a1   Thumb Code    36  usercontrols_messagebox.o(i.MessageBox_Show)
    MessageBox_Show_Procedure                0x080035c9   Thumb Code   448  usercontrols_messagebox.o(i.MessageBox_Show_Procedure)
    NMI_Handler                              0x08003799   Thumb Code     2  stm32f4xx_it.o(i.NMI_Handler)
    NVIC_Init                                0x0800379d   Thumb Code    92  misc.o(i.NVIC_Init)
    NVIC_PriorityGroupConfig                 0x08003801   Thumb Code    10  misc.o(i.NVIC_PriorityGroupConfig)
    NVIC_SetVectorTable                      0x08003815   Thumb Code    12  misc.o(i.NVIC_SetVectorTable)
    PWR_BackupAccessCmd                      0x08003829   Thumb Code     6  stm32f4xx_pwr.o(i.PWR_BackupAccessCmd)
    PWR_CheckStartupCalibrate                0x08003835   Thumb Code    24  pwr.o(i.PWR_CheckStartupCalibrate)
    PWR_ClearFlag                            0x08003851   Thumb Code    12  stm32f4xx_pwr.o(i.PWR_ClearFlag)
    PWR_EnterSTANDBYMode                     0x08003861   Thumb Code    32  stm32f4xx_pwr.o(i.PWR_EnterSTANDBYMode)
    PWR_GetFlagStatus                        0x08003889   Thumb Code    16  stm32f4xx_pwr.o(i.PWR_GetFlagStatus)
    PWR_GoToSleep                            0x0800389d   Thumb Code    20  pwr.o(i.PWR_GoToSleep)
    PWR_InitButtons                          0x080038b1   Thumb Code    72  pwr.o(i.PWR_InitButtons)
    PWR_WakeUpPinCmd                         0x080038f9   Thumb Code     6  stm32f4xx_pwr.o(i.PWR_WakeUpPinCmd)
    PendSV_Handler                           0x08003905   Thumb Code     2  stm32f4xx_it.o(i.PendSV_Handler)
    RCC_AHB1PeriphClockCmd                   0x08003909   Thumb Code    18  stm32f4xx_rcc.o(i.RCC_AHB1PeriphClockCmd)
    RCC_AHB3PeriphClockCmd                   0x08003921   Thumb Code    18  stm32f4xx_rcc.o(i.RCC_AHB3PeriphClockCmd)
    RCC_APB1PeriphClockCmd                   0x08003939   Thumb Code    18  stm32f4xx_rcc.o(i.RCC_APB1PeriphClockCmd)
    RCC_APB1PeriphResetCmd                   0x08003951   Thumb Code    18  stm32f4xx_rcc.o(i.RCC_APB1PeriphResetCmd)
    RCC_APB2PeriphClockCmd                   0x08003969   Thumb Code    18  stm32f4xx_rcc.o(i.RCC_APB2PeriphClockCmd)
    RCC_APB2PeriphResetCmd                   0x08003981   Thumb Code    18  stm32f4xx_rcc.o(i.RCC_APB2PeriphResetCmd)
    RCC_BackupResetCmd                       0x08003999   Thumb Code     6  stm32f4xx_rcc.o(i.RCC_BackupResetCmd)
    RCC_GetFlagStatus                        0x080039a5   Thumb Code    46  stm32f4xx_rcc.o(i.RCC_GetFlagStatus)
    RCC_LSEConfig                            0x080039d9   Thumb Code    22  stm32f4xx_rcc.o(i.RCC_LSEConfig)
    RCC_RTCCLKCmd                            0x080039f5   Thumb Code     6  stm32f4xx_rcc.o(i.RCC_RTCCLKCmd)
    RCC_RTCCLKConfig                         0x08003a01   Thumb Code    40  stm32f4xx_rcc.o(i.RCC_RTCCLKConfig)
    RTC_ClearFlag                            0x08003ac9   Thumb Code    22  stm32f4xx_rtc.o(i.RTC_ClearFlag)
    RTC_Config                               0x08003ae5   Thumb Code    64  rtc_time.o(i.RTC_Config)
    RTC_EnterInitMode                        0x08003b29   Thumb Code    46  stm32f4xx_rtc.o(i.RTC_EnterInitMode)
    RTC_ExitInitMode                         0x08003b5d   Thumb Code    12  stm32f4xx_rtc.o(i.RTC_ExitInitMode)
    RTC_GetTime                              0x08003b6d   Thumb Code    68  stm32f4xx_rtc.o(i.RTC_GetTime)
    RTC_Init                                 0x08003bb9   Thumb Code    74  stm32f4xx_rtc.o(i.RTC_Init)
    RTC_ReadBackupRegister                   0x08003c09   Thumb Code     8  stm32f4xx_rtc.o(i.RTC_ReadBackupRegister)
    RTC_SetTime                              0x08003c15   Thumb Code   146  stm32f4xx_rtc.o(i.RTC_SetTime)
    RTC_TimeRegulate                         0x08003cb1   Thumb Code    54  rtc_time.o(i.RTC_TimeRegulate)
    RTC_Time_Init                            0x08003d09   Thumb Code   112  rtc_time.o(i.RTC_Time_Init)
    RTC_WaitForSynchro                       0x08003da5   Thumb Code    64  stm32f4xx_rtc.o(i.RTC_WaitForSynchro)
    RTC_WriteBackupRegister                  0x08003de9   Thumb Code     8  stm32f4xx_rtc.o(i.RTC_WriteBackupRegister)
    Read_Ads7846                             0x08003df5   Thumb Code   298  touchpanel.o(i.Read_Ads7846)
    Read_Bat                                 0x08003f29   Thumb Code    48  touchpanel.o(i.Read_Bat)
    Read_X                                   0x08003f5d   Thumb Code    48  touchpanel.o(i.Read_X)
    Read_Y                                   0x08003f91   Thumb Code    48  touchpanel.o(i.Read_Y)
    SDIO_ClearFlag                           0x08004085   Thumb Code     6  stm32f4xx_sdio.o(i.SDIO_ClearFlag)
    SDIO_ClearITPendingBit                   0x08004091   Thumb Code     6  stm32f4xx_sdio.o(i.SDIO_ClearITPendingBit)
    SDIO_ClockCmd                            0x0800409d   Thumb Code     6  stm32f4xx_sdio.o(i.SDIO_ClockCmd)
    SDIO_DMACmd                              0x080040a9   Thumb Code     6  stm32f4xx_sdio.o(i.SDIO_DMACmd)
    SDIO_DataConfig                          0x080040b5   Thumb Code    42  stm32f4xx_sdio.o(i.SDIO_DataConfig)
    SDIO_GetCommandResponse                  0x080040e5   Thumb Code     8  stm32f4xx_sdio.o(i.SDIO_GetCommandResponse)
    SDIO_GetFlagStatus                       0x080040f1   Thumb Code    16  stm32f4xx_sdio.o(i.SDIO_GetFlagStatus)
    SDIO_GetITStatus                         0x08004105   Thumb Code    16  stm32f4xx_sdio.o(i.SDIO_GetITStatus)
    SDIO_GetPowerState                       0x08004119   Thumb Code    10  stm32f4xx_sdio.o(i.SDIO_GetPowerState)
    SDIO_GetResponse                         0x08004129   Thumb Code     6  stm32f4xx_sdio.o(i.SDIO_GetResponse)
    SDIO_IRQHandler                          0x08004135   Thumb Code     4  stm32f4xx_it.o(i.SDIO_IRQHandler)
    SDIO_ITConfig                            0x08004139   Thumb Code    18  stm32f4xx_sdio.o(i.SDIO_ITConfig)
    SDIO_Init                                0x08004151   Thumb Code    40  stm32f4xx_sdio.o(i.SDIO_Init)
    SDIO_ReadData                            0x0800417d   Thumb Code     6  stm32f4xx_sdio.o(i.SDIO_ReadData)
    SDIO_SendCommand                         0x08004189   Thumb Code    36  stm32f4xx_sdio.o(i.SDIO_SendCommand)
    SDIO_SetPowerState                       0x080041b1   Thumb Code     6  stm32f4xx_sdio.o(i.SDIO_SetPowerState)
    SD_Detect                                0x080041bd   Thumb Code    20  stm324xg_eval_sdio_sd.o(i.SD_Detect)
    SD_EnableWideBusOperation                0x080041d5   Thumb Code   106  stm324xg_eval_sdio_sd.o(i.SD_EnableWideBusOperation)
    SD_GetCardInfo                           0x08004249   Thumb Code   596  stm324xg_eval_sdio_sd.o(i.SD_GetCardInfo)
    SD_GetState                              0x080044a5   Thumb Code    34  stm324xg_eval_sdio_sd.o(i.SD_GetState)
    SD_GetStatus                             0x080044c7   Thumb Code    26  stm324xg_eval_sdio_sd.o(i.SD_GetStatus)
    SD_Init                                  0x080044e1   Thumb Code    86  stm324xg_eval_sdio_sd.o(i.SD_Init)
    SD_InitializeCards                       0x0800453d   Thumb Code   246  stm324xg_eval_sdio_sd.o(i.SD_InitializeCards)
    SD_LowLevel_DMA_RxConfig                 0x0800463d   Thumb Code   126  stm324xg_eval.o(i.SD_LowLevel_DMA_RxConfig)
    SD_LowLevel_DMA_TxConfig                 0x080046c5   Thumb Code   128  stm324xg_eval.o(i.SD_LowLevel_DMA_TxConfig)
    SD_LowLevel_Init                         0x0800474d   Thumb Code   180  stm324xg_eval.o(i.SD_LowLevel_Init)
    SD_NVIC_Configuration                    0x0800480d   Thumb Code    56  stm324xg_eval.o(i.SD_NVIC_Configuration)
    SD_PowerON                               0x08004845   Thumb Code   434  stm324xg_eval_sdio_sd.o(i.SD_PowerON)
    SD_ProcessDMAIRQ                         0x08004a09   Thumb Code    30  stm324xg_eval_sdio_sd.o(i.SD_ProcessDMAIRQ)
    SD_ProcessIRQSrc                         0x08004a31   Thumb Code   140  stm324xg_eval_sdio_sd.o(i.SD_ProcessIRQSrc)
    SD_ReadMultiBlocks                       0x08004ac1   Thumb Code   176  stm324xg_eval_sdio_sd.o(i.SD_ReadMultiBlocks)
    SD_SelectDeselect                        0x08004b7d   Thumb Code    40  stm324xg_eval_sdio_sd.o(i.SD_SelectDeselect)
    SD_SendStatus                            0x08004ba9   Thumb Code    64  stm324xg_eval_sdio_sd.o(i.SD_SendStatus)
    SD_StopTransfer                          0x08004bf1   Thumb Code    36  stm324xg_eval_sdio_sd.o(i.SD_StopTransfer)
    SD_WaitReadOperation                     0x08004c19   Thumb Code   100  stm324xg_eval_sdio_sd.o(i.SD_WaitReadOperation)
    SD_WaitWriteOperation                    0x08004c85   Thumb Code   100  stm324xg_eval_sdio_sd.o(i.SD_WaitWriteOperation)
    SD_WriteMultiBlocks                      0x08004cf1   Thumb Code   268  stm324xg_eval_sdio_sd.o(i.SD_WriteMultiBlocks)
    SPI_Cmd                                  0x08004e09   Thumb Code    20  stm32f4xx_spi.o(i.SPI_Cmd)
    SPI_I2S_DeInit                           0x08004e1d   Thumb Code    72  stm32f4xx_spi.o(i.SPI_I2S_DeInit)
    SPI_I2S_GetFlagStatus                    0x08004e71   Thumb Code    14  stm32f4xx_spi.o(i.SPI_I2S_GetFlagStatus)
    SPI_I2S_ReceiveData                      0x08004e7f   Thumb Code     4  stm32f4xx_spi.o(i.SPI_I2S_ReceiveData)
    SPI_I2S_SendData                         0x08004e83   Thumb Code     4  stm32f4xx_spi.o(i.SPI_I2S_SendData)
    SPI_Init                                 0x08004e87   Thumb Code    56  stm32f4xx_spi.o(i.SPI_Init)
    SVC_Handler                              0x08004ebf   Thumb Code     2  stm32f4xx_it.o(i.SVC_Handler)
    SYSCFG_EXTILineConfig                    0x08004ec1   Thumb Code    34  stm32f4xx_syscfg.o(i.SYSCFG_EXTILineConfig)
    SaveCalibrate                            0x08004ee9   Thumb Code   382  touchpanel.o(i.SaveCalibrate)
    SetFont                                  0x0800508d   Thumb Code    10  asciilib.o(i.SetFont)
    SysTick_Handler                          0x08005139   Thumb Code    48  stm32f4xx_it.o(i.SysTick_Handler)
    SystemInit                               0x08005171   Thumb Code    62  system_stm32f4xx.o(i.SystemInit)
    TP_DrawPoint                             0x080051c1   Thumb Code    50  touchpanel.o(i.TP_DrawPoint)
    TP_GetAdXY                               0x080051f3   Thumb Code    28  touchpanel.o(i.TP_GetAdXY)
    TP_Init                                  0x08005211   Thumb Code   290  touchpanel.o(i.TP_Init)
    TP_SwitchOff                             0x08005341   Thumb Code    42  touchpanel.o(i.TP_SwitchOff)
    TouchPanel_Calibrate                     0x08005371   Thumb Code   144  touchpanel.o(i.TouchPanel_Calibrate)
    UsageFault_Handler                       0x08005429   Thumb Code     2  stm32f4xx_it.o(i.UsageFault_Handler)
    UserControls_Button_Add                  0x0800542d   Thumb Code   124  usercontrols_button.o(i.UserControls_Button_Add)
    UserControls_Button_AddWithSize          0x080054d5   Thumb Code    94  usercontrols_button.o(i.UserControls_Button_AddWithSize)
    UserControls_Button_Clear                0x08005561   Thumb Code     8  usercontrols_button.o(i.UserControls_Button_Clear)
    UserControls_Button_Draw                 0x0800556d   Thumb Code   186  usercontrols_button.o(i.UserControls_Button_Draw)
    UserControls_Button_DrawSTDsize          0x08005627   Thumb Code   128  usercontrols_button.o(i.UserControls_Button_DrawSTDsize)
    UserControls_Button_GetControl           0x080056a9   Thumb Code    66  usercontrols_button.o(i.UserControls_Button_GetControl)
    UserControls_Button_GetLastControl       0x08005735   Thumb Code    24  usercontrols_button.o(i.UserControls_Button_GetLastControl)
    UserControls_Button_Handle               0x08005765   Thumb Code   202  usercontrols_button.o(i.UserControls_Button_Handle)
    UserControls_Button_RedrawAll            0x08005839   Thumb Code    54  usercontrols_button.o(i.UserControls_Button_RedrawAll)
    UserControls_Button_RedrawControls       0x08005879   Thumb Code    38  usercontrols_button.o(i.UserControls_Button_RedrawControls)
    UserControls_Button_SizeOffset           0x080058a5   Thumb Code    24  usercontrols_button.o(i.UserControls_Button_SizeOffset)
    UserControls_CheckBox_Add                0x080058c1   Thumb Code    70  usercontrols_checkbox.o(i.UserControls_CheckBox_Add)
    UserControls_CheckBox_Clear              0x08005935   Thumb Code     8  usercontrols_checkbox.o(i.UserControls_CheckBox_Clear)
    UserControls_CheckBox_Draw               0x08005941   Thumb Code    64  usercontrols_checkbox.o(i.UserControls_CheckBox_Draw)
    UserControls_CheckBox_Get                0x08005989   Thumb Code    14  usercontrols_checkbox.o(i.UserControls_CheckBox_Get)
    UserControls_CheckBox_Handle             0x0800599d   Thumb Code   176  usercontrols_checkbox.o(i.UserControls_CheckBox_Handle)
    UserControls_ListBox_Active              0x08005a55   Thumb Code     6  usercontrols_listbox.o(i.UserControls_ListBox_Active)
    UserControls_ListBox_Add                 0x08005a61   Thumb Code    80  usercontrols_listbox.o(i.UserControls_ListBox_Add)
    UserControls_ListBox_Clear               0x08005add   Thumb Code    36  usercontrols_listbox.o(i.UserControls_ListBox_Clear)
    UserControls_ListBox_Draw                0x08005b09   Thumb Code    78  usercontrols_listbox.o(i.UserControls_ListBox_Draw)
    UserControls_ListBox_GetText             0x08005b5d   Thumb Code    44  usercontrols_listbox.o(i.UserControls_ListBox_GetText)
    UserControls_ListBox_Handle              0x08005b8d   Thumb Code   656  usercontrols_listbox.o(i.UserControls_ListBox_Handle)
    UserControls_ListBox_Item_Draw           0x08005e25   Thumb Code   216  usercontrols_listbox.o(i.UserControls_ListBox_Item_Draw)
    UserControls_ListBox_Items_Add           0x08005f01   Thumb Code    96  usercontrols_listbox.o(i.UserControls_ListBox_Items_Add)
    UserControls_ListBox_NextPage            0x08005f89   Thumb Code    42  usercontrols_listbox.o(i.UserControls_ListBox_NextPage)
    UserControls_ListBox_PageCount           0x08005fb9   Thumb Code    30  usercontrols_listbox.o(i.UserControls_ListBox_PageCount)
    UserControls_ListBox_PageItems           0x08005fdd   Thumb Code    36  usercontrols_listbox.o(i.UserControls_ListBox_PageItems)
    UserControls_ListBox_PrevPage            0x08006005   Thumb Code    26  usercontrols_listbox.o(i.UserControls_ListBox_PrevPage)
    UserControls_RadioButton_Add             0x08006025   Thumb Code    88  usercontrols_radiobutton.o(i.UserControls_RadioButton_Add)
    UserControls_RadioButton_Clear           0x080060e5   Thumb Code     8  usercontrols_radiobutton.o(i.UserControls_RadioButton_Clear)
    UserControls_RadioButton_Draw            0x080060f1   Thumb Code    54  usercontrols_radiobutton.o(i.UserControls_RadioButton_Draw)
    UserControls_RadioButton_GetDigitFromIndex 0x08006131   Thumb Code    30  usercontrols_radiobutton.o(i.UserControls_RadioButton_GetDigitFromIndex)
    UserControls_RadioButton_GetTextFromIndex 0x08006159   Thumb Code    26  usercontrols_radiobutton.o(i.UserControls_RadioButton_GetTextFromIndex)
    UserControls_RadioButton_Handle          0x0800617d   Thumb Code    46  usercontrols_radiobutton.o(i.UserControls_RadioButton_Handle)
    UserControls_RadioButton_Set             0x080061b5   Thumb Code    22  usercontrols_radiobutton.o(i.UserControls_RadioButton_Set)
    UserControls_ValueRegulator_Add          0x08006211   Thumb Code    86  usercontrols_valueregulator.o(i.UserControls_ValueRegulator_Add)
    UserControls_ValueRegulator_Clear        0x0800629d   Thumb Code     8  usercontrols_valueregulator.o(i.UserControls_ValueRegulator_Clear)
    UserControls_ValueRegulator_Draw         0x080062a9   Thumb Code   196  usercontrols_valueregulator.o(i.UserControls_ValueRegulator_Draw)
    UserControls_ValueRegulator_Handle       0x08006389   Thumb Code   328  usercontrols_valueregulator.o(i.UserControls_ValueRegulator_Handle)
    _PWR_InitDownButton                      0x0800680d   Thumb Code    98  pwr.o(i._PWR_InitDownButton)
    _PWR_InitUpButton                        0x08006875   Thumb Code    94  pwr.o(i._PWR_InitUpButton)
    __0sprintf$6                             0x080068d9   Thumb Code    34  printf6.o(i.__0sprintf$6)
    __1sprintf$6                             0x080068d9   Thumb Code     0  printf6.o(i.__0sprintf$6)
    __2sprintf                               0x080068d9   Thumb Code     0  printf6.o(i.__0sprintf$6)
    __aeabi_errno_addr                       0x08006901   Thumb Code     4  errno.o(i.__aeabi_errno_addr)
    __rt_errno_addr                          0x08006901   Thumb Code     0  errno.o(i.__aeabi_errno_addr)
    __read_errno                             0x08006909   Thumb Code     6  errno.o(i.__read_errno)
    __scatterload_copy                       0x08006915   Thumb Code    14  handlers.o(i.__scatterload_copy)
    __scatterload_null                       0x08006923   Thumb Code     2  handlers.o(i.__scatterload_null)
    __scatterload_zeroinit                   0x08006925   Thumb Code    14  handlers.o(i.__scatterload_zeroinit)
    __set_errno                              0x08006935   Thumb Code     6  errno.o(i.__set_errno)
    _is_digit                                0x080069e1   Thumb Code    14  scanf_fp.o(i._is_digit)
    atof                                     0x08006df3   Thumb Code    42  atof.o(i.atof)
    clust2sect                               0x080070b9   Thumb Code    24  ff.o(i.clust2sect)
    disk_initialize                          0x08007935   Thumb Code    18  diskio.o(i.disk_initialize)
    disk_ioctl                               0x08007947   Thumb Code    34  diskio.o(i.disk_ioctl)
    disk_read                                0x08007969   Thumb Code    38  diskio.o(i.disk_read)
    disk_status                              0x0800798f   Thumb Code     8  diskio.o(i.disk_status)
    disk_write                               0x08007997   Thumb Code    38  diskio.o(i.disk_write)
    f_chmod                                  0x080079bd   Thumb Code    80  ff.o(i.f_chmod)
    f_close                                  0x08007a0d   Thumb Code    18  ff.o(i.f_close)
    f_getfree                                0x08007a1f   Thumb Code   194  ff.o(i.f_getfree)
    f_gets                                   0x08007ae1   Thumb Code    72  ff.o(i.f_gets)
    f_lseek                                  0x08007b29   Thumb Code   326  ff.o(i.f_lseek)
    f_mkdir                                  0x08007c6f   Thumb Code   354  ff.o(i.f_mkdir)
    f_mkfs                                   0x08007dd1   Thumb Code  1312  ff.o(i.f_mkfs)
    f_mount                                  0x080082f1   Thumb Code    26  ff.o(i.f_mount)
    f_open                                   0x08008311   Thumb Code   314  ff.o(i.f_open)
    f_opendir                                0x0800844b   Thumb Code    96  ff.o(i.f_opendir)
    f_printf                                 0x080084ab   Thumb Code   500  ff.o(i.f_printf)
    f_putc                                   0x0800869f   Thumb Code    44  ff.o(i.f_putc)
    f_puts                                   0x080086cb   Thumb Code    40  ff.o(i.f_puts)
    f_read                                   0x080086f3   Thumb Code   354  ff.o(i.f_read)
    f_readdir                                0x08008855   Thumb Code    86  ff.o(i.f_readdir)
    f_rename                                 0x080088ab   Thumb Code   254  ff.o(i.f_rename)
    f_stat                                   0x080089a9   Thumb Code    62  ff.o(i.f_stat)
    f_sync                                   0x080089e7   Thumb Code   152  ff.o(i.f_sync)
    f_truncate                               0x08008a7f   Thumb Code   140  ff.o(i.f_truncate)
    f_unlink                                 0x08008b0b   Thumb Code   166  ff.o(i.f_unlink)
    f_utime                                  0x08008bb1   Thumb Code    84  ff.o(i.f_utime)
    f_write                                  0x08008c05   Thumb Code   418  ff.o(i.f_write)
    ff_convert                               0x08008da9   Thumb Code    50  ccsbcs.o(i.ff_convert)
    ff_wtoupper                              0x08008de1   Thumb Code    28  ccsbcs.o(i.ff_wtoupper)
    gen_numname                              0x08008e6d   Thumb Code   108  ff.o(i.gen_numname)
    getDisplayPoint                          0x08008ed9   Thumb Code   176  touchpanel.o(i.getDisplayPoint)
    get_fat                                  0x08008f89   Thumb Code   228  ff.o(i.get_fat)
    get_fattime                              0x0800906d   Thumb Code     4  fattime.o(i.get_fattime)
    main                                     0x08009155   Thumb Code    66  main.o(i.main)
    put_fat                                  0x080091ed   Thumb Code   294  ff.o(i.put_fat)
    scan_files                               0x08009375   Thumb Code   130  sduser.o(i.scan_files)
    scan_programs                            0x08009401   Thumb Code    18  sduser.o(i.scan_programs)
    setCalibrationMatrix                     0x08009419   Thumb Code   330  touchpanel.o(i.setCalibrationMatrix)
    Font8x15_Width                           0x080096bc   Data         160  asciilib.o(.constdata)
    Font8x15                                 0x0800975c   Data        2400  asciilib.o(.constdata)
    Font5x8                                  0x0800a0bc   Data         800  asciilib.o(.constdata)
    Radio1                                   0x0800a9ac   Data         676  usercontrols_radiobutton.o(.constdata)
    Radio2                                   0x0800ac50   Data         676  usercontrols_radiobutton.o(.constdata)
    __ctype_table                            0x0800af26   Data         129  ctype_o.o(.constdata)
    Region$$Table$$Base                      0x0800afac   Number         0  anon$$obj.o(Region$$Table)
    Region$$Table$$Limit                     0x0800afcc   Number         0  anon$$obj.o(Region$$Table)
    time_counter                             0x20000000   Data           4  stm32f4xx_it.o(.data)
    SystemCoreClock                          0x20000004   Data           4  system_stm32f4xx.o(.data)
    AHBPrescTable                            0x20000008   Data          16  system_stm32f4xx.o(.data)
    TransferError                            0x20000024   Data           1  stm324xg_eval_sdio_sd.o(.data)
    StopCondition                            0x20000030   Data           4  stm324xg_eval_sdio_sd.o(.data)
    TransferEnd                              0x20000034   Data           4  stm324xg_eval_sdio_sd.o(.data)
    DMAEndOfTransfer                         0x20000038   Data           4  stm324xg_eval_sdio_sd.o(.data)
    res                                      0x20000044   Data           1  sduser.o(.data)
    px                                       0x2000004a   Data           2  usercontrols_listbox.o(.data)
    py                                       0x2000004c   Data           2  usercontrols_listbox.o(.data)
    ux                                       0x2000004e   Data           2  usercontrols_listbox.o(.data)
    uy                                       0x20000050   Data           2  usercontrols_listbox.o(.data)
    StartSector                              0x20000070   Data           4  flash.o(.data)
    EndSector                                0x20000074   Data           4  flash.o(.data)
    i                                        0x20000078   Data           4  flash.o(.data)
    DisplaySample                            0x20000084   Data          12  touchpanel.o(.data)
    display                                  0x20000090   Data           4  touchpanel.o(.data)
    _selectForm                              0x20000094   Data           1  formmanager.o(.data)
    TIME_h                                   0x20000098   Data           4  formmanager.o(.data)
    TIME_m                                   0x2000009c   Data           4  formmanager.o(.data)
    TIME_s                                   0x200000a0   Data           4  formmanager.o(.data)
    AsynchPrediv                             0x200000a4   Data           4  rtc_time.o(.data)
    SynchPrediv                              0x200000a8   Data           4  rtc_time.o(.data)
    RTC_TimeStructure                        0x200000ac   Data           4  rtc_time.o(.data)
    SDCardInfo                               0x200000e8   Data          88  stm324xg_eval_sdio_sd.o(.bss)
    SDIO_InitStructure                       0x20000140   Data          24  stm324xg_eval_sdio_sd.o(.bss)
    SDIO_CmdInitStructure                    0x20000158   Data          20  stm324xg_eval_sdio_sd.o(.bss)
    SDIO_DataInitStructure                   0x2000016c   Data          24  stm324xg_eval_sdio_sd.o(.bss)
    fs                                       0x200001a0   Data        1076  sduser.o(.bss)
    fsrc                                     0x200005d4   Data        1060  sduser.o(.bss)
    matrix                                   0x20002310   Data          56  touchpanel.o(.bss)
    ScreenSample                             0x20002348   Data          12  touchpanel.o(.bss)
    RTC_InitStructure                        0x20002354   Data          12  rtc_time.o(.bss)
    __initial_sp                             0x20002760   Data           0  startup_stm32f4xx.o(STACK)



==============================================================================

Memory Map of the image

  Image Entry point : 0x08000189

  Load Region LR_IROM1 (Base: 0x08000000, Size: 0x0000b080, Max: 0x0000aff0, ABSOLUTE)

    Execution Region ER_IROM1 (Base: 0x08000000, Size: 0x0000afcc, Max: 0x0000aff0, ABSOLUTE)

    Base Addr    Size         Type   Attr      Idx    E Section Name        Object

    0x08000000   0x00000188   Data   RO         2604    RESET               startup_stm32f4xx.o
    0x08000188   0x00000000   Code   RO         4375  * .ARM.Collect$$$$00000000  mc_w.l(entry.o)
    0x08000188   0x00000004   Code   RO         4671    .ARM.Collect$$$$00000001  mc_w.l(entry2.o)
    0x0800018c   0x00000004   Code   RO         4674    .ARM.Collect$$$$00000004  mc_w.l(entry5.o)
    0x08000190   0x00000000   Code   RO         4676    .ARM.Collect$$$$00000008  mc_w.l(entry7b.o)
    0x08000190   0x00000008   Code   RO         4677    .ARM.Collect$$$$00000009  mc_w.l(entry8.o)
    0x08000198   0x00000004   Code   RO         4672    .ARM.Collect$$$$00002712  mc_w.l(entry2.o)
    0x0800019c   0x00000024   Code   RO         2605    .text               startup_stm32f4xx.o
    0x080001c0   0x00000024   Code   RO         4378    .text               mc_w.l(memcpya.o)
    0x080001e4   0x00000024   Code   RO         4380    .text               mc_w.l(memseta.o)
    0x08000208   0x0000001c   Code   RO         4382    .text               mc_w.l(strcat.o)
    0x08000224   0x00000010   Code   RO         4384    .text               mc_w.l(strlen.o)
    0x08000234   0x0000001c   Code   RO         4386    .text               mc_w.l(strcmp.o)
    0x08000250   0x00000012   Code   RO         4388    .text               mc_w.l(strcpy.o)
    0x08000262   0x0000001a   Code   RO         4653    .text               mc_w.l(atoi.o)
    0x0800027c   0x0000014e   Code   RO         4655    .text               mf_w.l(dadd.o)
    0x080003ca   0x000000e4   Code   RO         4657    .text               mf_w.l(dmul.o)
    0x080004ae   0x000000de   Code   RO         4659    .text               mf_w.l(ddiv.o)
    0x0800058c   0x00000022   Code   RO         4661    .text               mf_w.l(dflti.o)
    0x080005ae   0x0000001a   Code   RO         4663    .text               mf_w.l(dfltui.o)
    0x080005c8   0x0000003e   Code   RO         4665    .text               mf_w.l(dfixi.o)
    0x08000606   0x00000032   Code   RO         4667    .text               mf_w.l(dfixui.o)
    0x08000638   0x00000028   Code   RO         4669    .text               mf_w.l(cdcmple.o)
    0x08000660   0x0000002c   Code   RO         4681    .text               mc_w.l(uidiv.o)
    0x0800068c   0x0000001e   Code   RO         4685    .text               mc_w.l(llshl.o)
    0x080006aa   0x00000020   Code   RO         4687    .text               mc_w.l(llushr.o)
    0x080006ca   0x00000024   Code   RO         4689    .text               mc_w.l(llsshr.o)
    0x080006ee   0x00000002   PAD
    0x080006f0   0x0000009c   Code   RO         4698    .text               mc_w.l(strtod.o)
    0x0800078c   0x00000070   Code   RO         4700    .text               mc_w.l(strtol.o)
    0x080007fc   0x00000000   Code   RO         4702    .text               mc_w.l(iusefp.o)
    0x080007fc   0x000000be   Code   RO         4703    .text               mf_w.l(depilogue.o)
    0x080008ba   0x00000002   PAD
    0x080008bc   0x00000024   Code   RO         4709    .text               mc_w.l(init.o)
    0x080008e0   0x00000008   Code   RO         4714    .text               mc_w.l(ctype_o.o)
    0x080008e8   0x00000012   Code   RO         4736    .text               mc_w.l(isspace_o.o)
    0x080008fa   0x00000002   PAD
    0x080008fc   0x0000033c   Code   RO         4742    .text               mc_w.l(scanf_fp.o)
    0x08000c38   0x00000040   Code   RO         4746    .text               mc_w.l(_sgetc.o)
    0x08000c78   0x0000009e   Code   RO         4748    .text               mc_w.l(_strtoul.o)
    0x08000d16   0x0000001c   Code   RO         4754    .text               mc_w.l(_chval.o)
    0x08000d32   0x00000018   Code   RO         4756    .text               mf_w.l(dfltul.o)
    0x08000d4a   0x00000038   Code   RO         4758    .text               mf_w.l(d2f.o)
    0x08000d82   0x0000006c   Code   RO         4760    .text               mf_w.l(fepilogue.o)
    0x08000dee   0x00000002   Code   RO          210    i.BusFault_Handler  stm32f4xx_it.o
    0x08000df0   0x00000024   Code   RO         4333    i.Clock_GetTime     rtc_time.o
    0x08000e14   0x000000ec   Code   RO         3033    i.CmdResp1Error     stm324xg_eval_sdio_sd.o
    0x08000f00   0x00000038   Code   RO         3034    i.CmdResp2Error     stm324xg_eval_sdio_sd.o
    0x08000f38   0x00000074   Code   RO         3035    i.CmdResp6Error     stm324xg_eval_sdio_sd.o
    0x08000fac   0x00000004   Code   RO          211    i.DMA2_Stream3_IRQHandler  stm32f4xx_it.o
    0x08000fb0   0x0000002c   Code   RO         1480    i.DMA_ClearFlag     stm32f4xx_dma.o
    0x08000fdc   0x00000014   Code   RO         1482    i.DMA_Cmd           stm32f4xx_dma.o
    0x08000ff0   0x00000124   Code   RO         1483    i.DMA_DeInit        stm32f4xx_dma.o
    0x08001114   0x00000014   Code   RO         1486    i.DMA_FlowControllerConfig  stm32f4xx_dma.o
    0x08001128   0x0000002c   Code   RO         1493    i.DMA_ITConfig      stm32f4xx_dma.o
    0x08001154   0x00000054   Code   RO         1494    i.DMA_Init          stm32f4xx_dma.o
    0x080011a8   0x00000002   Code   RO          212    i.DebugMon_Handler  stm32f4xx_it.o
    0x080011aa   0x0000001a   Code   RO         4074    i.DelayUS           touchpanel.o
    0x080011c4   0x00000174   Code   RO         4220    i.DrawClock         formmanager.o
    0x08001338   0x00000100   Code   RO         4075    i.DrawCross         touchpanel.o
    0x08001438   0x00000018   Code   RO          213    i.EXTI0_IRQHandler  stm32f4xx_it.o
    0x08001450   0x00000018   Code   RO          214    i.EXTI4_IRQHandler  stm32f4xx_it.o
    0x08001468   0x0000000c   Code   RO          907    i.EXTI_ClearITPendingBit  stm32f4xx_exti.o
    0x08001474   0x00000020   Code   RO          911    i.EXTI_GetITStatus  stm32f4xx_exti.o
    0x08001494   0x00000070   Code   RO          912    i.EXTI_Init         stm32f4xx_exti.o
    0x08001504   0x0000000c   Code   RO          967    i.FLASH_ClearFlag   stm32f4xx_flash.o
    0x08001510   0x0000006c   Code   RO          971    i.FLASH_EraseSector  stm32f4xx_flash.o
    0x0800157c   0x00000034   Code   RO          973    i.FLASH_GetStatus   stm32f4xx_flash.o
    0x080015b0   0x00000010   Code   RO          977    i.FLASH_Lock        stm32f4xx_flash.o
    0x080015c0   0x0000003c   Code   RO          993    i.FLASH_ProgramWord  stm32f4xx_flash.o
    0x080015fc   0x00000024   Code   RO          995    i.FLASH_Unlock      stm32f4xx_flash.o
    0x08001620   0x0000000e   Code   RO          996    i.FLASH_WaitForLastOperation  stm32f4xx_flash.o
    0x0800162e   0x00000002   PAD
    0x08001630   0x00000020   Code   RO         1171    i.FSMC_NORSRAMCmd   stm32f4xx_fsmc.o
    0x08001650   0x000000c0   Code   RO         1173    i.FSMC_NORSRAMInit  stm32f4xx_fsmc.o
    0x08001710   0x00000134   Code   RO         3036    i.FindSCR           stm324xg_eval_sdio_sd.o
    0x08001844   0x00000888   Code   RO         4046    i.FlashFirmware     flash.o
    0x080020cc   0x00000120   Code   RO         4221    i.Form_Handle       formmanager.o
    0x080021ec   0x00000018   Code   RO         4222    i.Form_Show         formmanager.o
    0x08002204   0x000000a2   Code   RO          764    i.GPIO_Init         stm32f4xx_gpio.o
    0x080022a6   0x00000020   Code   RO          765    i.GPIO_PinAFConfig  stm32f4xx_gpio.o
    0x080022c6   0x0000000e   Code   RO          768    i.GPIO_ReadInputDataBit  stm32f4xx_gpio.o
    0x080022d4   0x00000004   Code   RO          771    i.GPIO_ResetBits    stm32f4xx_gpio.o
    0x080022d8   0x00000004   Code   RO          772    i.GPIO_SetBits      stm32f4xx_gpio.o
    0x080022dc   0x000000b0   Code   RO         2861    i.GUI_Circle        lcd.o
    0x0800238c   0x00000046   Code   RO         2862    i.GUI_DrawImage     lcd.o
    0x080023d2   0x0000004e   Code   RO         2863    i.GUI_DrawImageWithReplace  lcd.o
    0x08002420   0x000000c0   Code   RO         2864    i.GUI_DrawImageWithReplace_SD  lcd.o
    0x080024e0   0x000000b4   Code   RO         2865    i.GUI_DrawImage_SD  lcd.o
    0x08002594   0x00000028   Code   RO         2866    i.GUI_DrawInvertImage  lcd.o
    0x080025bc   0x00000028   Code   RO         2867    i.GUI_DrawInvertImage_SD  lcd.o
    0x080025e4   0x00000002   Code   RO         2868    i.GUI_FillCircle    lcd.o
    0x080025e6   0x000000dc   Code   RO         2869    i.GUI_FillRectEllipce  lcd.o
    0x080026c2   0x000000e2   Code   RO         2870    i.GUI_Line          lcd.o
    0x080027a4   0x000000d8   Code   RO         2871    i.GUI_PutChar       lcd.o
    0x0800287c   0x0000005c   Code   RO         2872    i.GUI_Rect          lcd.o
    0x080028d8   0x00000120   Code   RO         2873    i.GUI_RectEllipce   lcd.o
    0x080029f8   0x0000003c   Code   RO         2874    i.GUI_SmartClear    lcd.o
    0x08002a34   0x00000066   Code   RO         2875    i.GUI_Text          lcd.o
    0x08002a9a   0x00000002   PAD
    0x08002a9c   0x0000003c   Code   RO         2610    i.GetASCIICode      asciilib.o
    0x08002ad8   0x00000018   Code   RO         2611    i.GetCharHeight     asciilib.o
    0x08002af0   0x00000038   Code   RO         2612    i.GetCharSize       asciilib.o
    0x08002b28   0x00000030   Code   RO         2613    i.GetCharWidth      asciilib.o
    0x08002b58   0x0000000c   Code   RO         2614    i.GetFont           asciilib.o
    0x08002b64   0x000000bc   Code   RO         4047    i.GetSector         flash.o
    0x08002c20   0x0000001c   Code   RO         2615    i.GetWidth          asciilib.o
    0x08002c3c   0x0000000c   Code   RO         4223    i.Get_Select_Form   formmanager.o
    0x08002c48   0x00000002   Code   RO          215    i.HardFault_Handler  stm32f4xx_it.o
    0x08002c4a   0x00000002   PAD
    0x08002c4c   0x00000098   Code   RO         2666    i.LCD_CS_Init       ili9481.o
    0x08002ce4   0x0000003c   Code   RO         2667    i.LCD_Clear         ili9481.o
    0x08002d20   0x0000011c   Code   RO         2668    i.LCD_CtrlLinesConfig  ili9481.o
    0x08002e3c   0x0000000a   Code   RO         2669    i.LCD_Enter_Invert_Mode  ili9481.o
    0x08002e46   0x0000000a   Code   RO         2670    i.LCD_Enter_Normal_Mode  ili9481.o
    0x08002e50   0x0000000a   Code   RO         2671    i.LCD_Enter_Sleep_Mode  ili9481.o
    0x08002e5a   0x0000000a   Code   RO         2672    i.LCD_Exit_Invert_Mode  ili9481.o
    0x08002e64   0x0000000a   Code   RO         2673    i.LCD_Exit_Sleep_Mode  ili9481.o
    0x08002e6e   0x0000004c   Code   RO         2674    i.LCD_FSMCConfig    ili9481.o
    0x08002eba   0x00000002   PAD
    0x08002ebc   0x000000a8   Code   RO         2675    i.LCD_FillRect      ili9481.o
    0x08002f64   0x00000054   Code   RO         2676    i.LCD_GetPoint      ili9481.o
    0x08002fb8   0x00000058   Code   RO         2677    i.LCD_HardwareScroll  ili9481.o
    0x08003010   0x0000000c   Code   RO         2678    i.LCD_HardwareScroll_Position  ili9481.o
    0x0800301c   0x00000038   Code   RO         2679    i.LCD_HardwareScroll_Position_Reset  ili9481.o
    0x08003054   0x0000000c   Code   RO         2680    i.LCD_Hardware_InvertMode_Off  ili9481.o
    0x08003060   0x0000000c   Code   RO         2681    i.LCD_Hardware_InvertMode_On  ili9481.o
    0x0800306c   0x00000134   Code   RO         2682    i.LCD_Initialization  ili9481.o
    0x080031a0   0x00000010   Code   RO         2683    i.LCD_Led_Off       ili9481.o
    0x080031b0   0x00000010   Code   RO         2684    i.LCD_Led_On        ili9481.o
    0x080031c0   0x0000000a   Code   RO         2685    i.LCD_OFF           ili9481.o
    0x080031ca   0x0000000a   Code   RO         2686    i.LCD_ON            ili9481.o
    0x080031d4   0x0000000c   Code   RO         2687    i.LCD_ReadData      ili9481.o
    0x080031e0   0x00000010   Code   RO         2688    i.LCD_ReadReg       ili9481.o
    0x080031f0   0x00000028   Code   RO         2689    i.LCD_SetCursor     ili9481.o
    0x08003218   0x00000050   Code   RO         2690    i.LCD_SetPoint      ili9481.o
    0x08003268   0x0000000c   Code   RO         2691    i.LCD_WriteData     ili9481.o
    0x08003274   0x00000008   Code   RO         2692    i.LCD_WriteIndex    ili9481.o
    0x0800327c   0x00000010   Code   RO         2693    i.LCD_WriteReg      ili9481.o
    0x0800328c   0x0000001c   Code   RO         2694    i.LCD_delay         ili9481.o
    0x080032a8   0x000001a0   Code   RO         4076    i.LoadCalibrate     touchpanel.o
    0x08003448   0x00000002   Code   RO          216    i.MemManage_Handler  stm32f4xx_it.o
    0x0800344a   0x00000002   PAD
    0x0800344c   0x0000000c   Code   RO         3879    i.MessageBox_GetResult  usercontrols_messagebox.o
    0x08003458   0x0000000c   Code   RO         3880    i.MessageBox_GetVisible  usercontrols_messagebox.o
    0x08003464   0x00000108   Code   RO         3881    i.MessageBox_Handle  usercontrols_messagebox.o
    0x0800356c   0x00000028   Code   RO         3882    i.MessageBox_Hide   usercontrols_messagebox.o
    0x08003594   0x0000000c   Code   RO         3883    i.MessageBox_ResetResult  usercontrols_messagebox.o
    0x080035a0   0x00000028   Code   RO         3884    i.MessageBox_Show   usercontrols_messagebox.o
    0x080035c8   0x000001d0   Code   RO         3885    i.MessageBox_Show_Procedure  usercontrols_messagebox.o
    0x08003798   0x00000002   Code   RO          217    i.NMI_Handler       stm32f4xx_it.o
    0x0800379a   0x00000002   PAD
    0x0800379c   0x00000064   Code   RO          717    i.NVIC_Init         misc.o
    0x08003800   0x00000014   Code   RO          718    i.NVIC_PriorityGroupConfig  misc.o
    0x08003814   0x00000014   Code   RO          719    i.NVIC_SetVectorTable  misc.o
    0x08003828   0x0000000c   Code   RO         2521    i.PWR_BackupAccessCmd  stm32f4xx_pwr.o
    0x08003834   0x0000001c   Code   RO         4293    i.PWR_CheckStartupCalibrate  pwr.o
    0x08003850   0x00000010   Code   RO         2523    i.PWR_ClearFlag     stm32f4xx_pwr.o
    0x08003860   0x00000028   Code   RO         2525    i.PWR_EnterSTANDBYMode  stm32f4xx_pwr.o
    0x08003888   0x00000014   Code   RO         2528    i.PWR_GetFlagStatus  stm32f4xx_pwr.o
    0x0800389c   0x00000014   Code   RO         4294    i.PWR_GoToSleep     pwr.o
    0x080038b0   0x00000048   Code   RO         4295    i.PWR_InitButtons   pwr.o
    0x080038f8   0x0000000c   Code   RO         2532    i.PWR_WakeUpPinCmd  stm32f4xx_pwr.o
    0x08003904   0x00000002   Code   RO          218    i.PendSV_Handler    stm32f4xx_it.o
    0x08003906   0x00000002   PAD
    0x08003908   0x00000018   Code   RO          363    i.RCC_AHB1PeriphClockCmd  stm32f4xx_rcc.o
    0x08003920   0x00000018   Code   RO          369    i.RCC_AHB3PeriphClockCmd  stm32f4xx_rcc.o
    0x08003938   0x00000018   Code   RO          372    i.RCC_APB1PeriphClockCmd  stm32f4xx_rcc.o
    0x08003950   0x00000018   Code   RO          374    i.RCC_APB1PeriphResetCmd  stm32f4xx_rcc.o
    0x08003968   0x00000018   Code   RO          375    i.RCC_APB2PeriphClockCmd  stm32f4xx_rcc.o
    0x08003980   0x00000018   Code   RO          377    i.RCC_APB2PeriphResetCmd  stm32f4xx_rcc.o
    0x08003998   0x0000000c   Code   RO          379    i.RCC_BackupResetCmd  stm32f4xx_rcc.o
    0x080039a4   0x00000034   Code   RO          385    i.RCC_GetFlagStatus  stm32f4xx_rcc.o
    0x080039d8   0x0000001c   Code   RO          393    i.RCC_LSEConfig     stm32f4xx_rcc.o
    0x080039f4   0x0000000c   Code   RO          403    i.RCC_RTCCLKCmd     stm32f4xx_rcc.o
    0x08003a00   0x00000030   Code   RO          404    i.RCC_RTCCLKConfig  stm32f4xx_rcc.o
    0x08003a30   0x0000006c   Code   RO         4077    i.RD_AD             touchpanel.o
    0x08003a9c   0x00000012   Code   RO         2171    i.RTC_Bcd2ToByte    stm32f4xx_rtc.o
    0x08003aae   0x00000018   Code   RO         2173    i.RTC_ByteToBcd2    stm32f4xx_rtc.o
    0x08003ac6   0x00000002   PAD
    0x08003ac8   0x0000001c   Code   RO         2176    i.RTC_ClearFlag     stm32f4xx_rtc.o
    0x08003ae4   0x00000044   Code   RO         4334    i.RTC_Config        rtc_time.o
    0x08003b28   0x00000034   Code   RO         2183    i.RTC_EnterInitMode  stm32f4xx_rtc.o
    0x08003b5c   0x00000010   Code   RO         2184    i.RTC_ExitInitMode  stm32f4xx_rtc.o
    0x08003b6c   0x0000004c   Code   RO         2192    i.RTC_GetTime       stm32f4xx_rtc.o
    0x08003bb8   0x00000050   Code   RO         2197    i.RTC_Init          stm32f4xx_rtc.o
    0x08003c08   0x0000000c   Code   RO         2200    i.RTC_ReadBackupRegister  stm32f4xx_rtc.o
    0x08003c14   0x0000009c   Code   RO         2204    i.RTC_SetTime       stm32f4xx_rtc.o
    0x08003cb0   0x00000058   Code   RO         4335    i.RTC_TimeRegulate  rtc_time.o
    0x08003d08   0x0000009c   Code   RO         4336    i.RTC_Time_Init     rtc_time.o
    0x08003da4   0x00000044   Code   RO         2220    i.RTC_WaitForSynchro  stm32f4xx_rtc.o
    0x08003de8   0x0000000c   Code   RO         2223    i.RTC_WriteBackupRegister  stm32f4xx_rtc.o
    0x08003df4   0x00000134   Code   RO         4078    i.Read_Ads7846      touchpanel.o
    0x08003f28   0x00000034   Code   RO         4079    i.Read_Bat          touchpanel.o
    0x08003f5c   0x00000034   Code   RO         4080    i.Read_X            touchpanel.o
    0x08003f90   0x00000034   Code   RO         4081    i.Read_Y            touchpanel.o
    0x08003fc4   0x000000c0   Code   RO         3038    i.SDEnWideBus       stm324xg_eval_sdio_sd.o
    0x08004084   0x0000000c   Code   RO         1288    i.SDIO_ClearFlag    stm32f4xx_sdio.o
    0x08004090   0x0000000c   Code   RO         1289    i.SDIO_ClearITPendingBit  stm32f4xx_sdio.o
    0x0800409c   0x0000000c   Code   RO         1290    i.SDIO_ClockCmd     stm32f4xx_sdio.o
    0x080040a8   0x0000000c   Code   RO         1293    i.SDIO_DMACmd       stm32f4xx_sdio.o
    0x080040b4   0x00000030   Code   RO         1294    i.SDIO_DataConfig   stm32f4xx_sdio.o
    0x080040e4   0x0000000c   Code   RO         1297    i.SDIO_GetCommandResponse  stm32f4xx_sdio.o
    0x080040f0   0x00000014   Code   RO         1300    i.SDIO_GetFlagStatus  stm32f4xx_sdio.o
    0x08004104   0x00000014   Code   RO         1301    i.SDIO_GetITStatus  stm32f4xx_sdio.o
    0x08004118   0x00000010   Code   RO         1302    i.SDIO_GetPowerState  stm32f4xx_sdio.o
    0x08004128   0x0000000c   Code   RO         1303    i.SDIO_GetResponse  stm32f4xx_sdio.o
    0x08004134   0x00000004   Code   RO          219    i.SDIO_IRQHandler   stm32f4xx_it.o
    0x08004138   0x00000018   Code   RO         1304    i.SDIO_ITConfig     stm32f4xx_sdio.o
    0x08004150   0x0000002c   Code   RO         1305    i.SDIO_Init         stm32f4xx_sdio.o
    0x0800417c   0x0000000c   Code   RO         1306    i.SDIO_ReadData     stm32f4xx_sdio.o
    0x08004188   0x00000028   Code   RO         1308    i.SDIO_SendCommand  stm32f4xx_sdio.o
    0x080041b0   0x0000000c   Code   RO         1310    i.SDIO_SetPowerState  stm32f4xx_sdio.o
    0x080041bc   0x00000018   Code   RO         3040    i.SD_Detect         stm324xg_eval_sdio_sd.o
    0x080041d4   0x00000074   Code   RO         3041    i.SD_EnableWideBusOperation  stm324xg_eval_sdio_sd.o
    0x08004248   0x0000025c   Code   RO         3043    i.SD_GetCardInfo    stm324xg_eval_sdio_sd.o
    0x080044a4   0x00000022   Code   RO         3045    i.SD_GetState       stm324xg_eval_sdio_sd.o
    0x080044c6   0x0000001a   Code   RO         3046    i.SD_GetStatus      stm324xg_eval_sdio_sd.o
    0x080044e0   0x0000005c   Code   RO         3048    i.SD_Init           stm324xg_eval_sdio_sd.o
    0x0800453c   0x00000100   Code   RO         3049    i.SD_InitializeCards  stm324xg_eval_sdio_sd.o
    0x0800463c   0x00000088   Code   RO         2961    i.SD_LowLevel_DMA_RxConfig  stm324xg_eval.o
    0x080046c4   0x00000088   Code   RO         2962    i.SD_LowLevel_DMA_TxConfig  stm324xg_eval.o
    0x0800474c   0x000000c0   Code   RO         2964    i.SD_LowLevel_Init  stm324xg_eval.o
    0x0800480c   0x00000038   Code   RO         2965    i.SD_NVIC_Configuration  stm324xg_eval.o
    0x08004844   0x000001c4   Code   RO         3051    i.SD_PowerON        stm324xg_eval_sdio_sd.o
    0x08004a08   0x00000028   Code   RO         3052    i.SD_ProcessDMAIRQ  stm324xg_eval_sdio_sd.o
    0x08004a30   0x00000090   Code   RO         3053    i.SD_ProcessIRQSrc  stm324xg_eval_sdio_sd.o
    0x08004ac0   0x000000bc   Code   RO         3055    i.SD_ReadMultiBlocks  stm324xg_eval_sdio_sd.o
    0x08004b7c   0x0000002c   Code   RO         3056    i.SD_SelectDeselect  stm324xg_eval_sdio_sd.o
    0x08004ba8   0x00000048   Code   RO         3058    i.SD_SendStatus     stm324xg_eval_sdio_sd.o
    0x08004bf0   0x00000028   Code   RO         3059    i.SD_StopTransfer   stm324xg_eval_sdio_sd.o
    0x08004c18   0x0000006c   Code   RO         3060    i.SD_WaitReadOperation  stm324xg_eval_sdio_sd.o
    0x08004c84   0x0000006c   Code   RO         3061    i.SD_WaitWriteOperation  stm324xg_eval_sdio_sd.o
    0x08004cf0   0x00000118   Code   RO         3063    i.SD_WriteMultiBlocks  stm324xg_eval_sdio_sd.o
    0x08004e08   0x00000014   Code   RO         1613    i.SPI_Cmd           stm32f4xx_spi.o
    0x08004e1c   0x00000054   Code   RO         1620    i.SPI_I2S_DeInit    stm32f4xx_spi.o
    0x08004e70   0x0000000e   Code   RO         1621    i.SPI_I2S_GetFlagStatus  stm32f4xx_spi.o
    0x08004e7e   0x00000004   Code   RO         1624    i.SPI_I2S_ReceiveData  stm32f4xx_spi.o
    0x08004e82   0x00000004   Code   RO         1625    i.SPI_I2S_SendData  stm32f4xx_spi.o
    0x08004e86   0x00000038   Code   RO         1626    i.SPI_Init          stm32f4xx_spi.o
    0x08004ebe   0x00000002   Code   RO          220    i.SVC_Handler       stm32f4xx_it.o
    0x08004ec0   0x00000028   Code   RO          863    i.SYSCFG_EXTILineConfig  stm32f4xx_syscfg.o
    0x08004ee8   0x000001a4   Code   RO         4082    i.SaveCalibrate     touchpanel.o
    0x0800508c   0x00000010   Code   RO         2616    i.SetFont           asciilib.o
    0x0800509c   0x0000009c   Code   RO          330    i.SetSysClock       system_stm32f4xx.o
    0x08005138   0x00000038   Code   RO          221    i.SysTick_Handler   stm32f4xx_it.o
    0x08005170   0x00000050   Code   RO          332    i.SystemInit        system_stm32f4xx.o
    0x080051c0   0x00000032   Code   RO         4083    i.TP_DrawPoint      touchpanel.o
    0x080051f2   0x0000001c   Code   RO         4084    i.TP_GetAdXY        touchpanel.o
    0x0800520e   0x00000002   PAD
    0x08005210   0x00000130   Code   RO         4085    i.TP_Init           touchpanel.o
    0x08005340   0x00000030   Code   RO         4086    i.TP_SwitchOff      touchpanel.o
    0x08005370   0x000000b8   Code   RO         4087    i.TouchPanel_Calibrate  touchpanel.o
    0x08005428   0x00000002   Code   RO          222    i.UsageFault_Handler  stm32f4xx_it.o
    0x0800542a   0x00000002   PAD
    0x0800542c   0x000000a8   Code   RO         3654    i.UserControls_Button_Add  usercontrols_button.o
    0x080054d4   0x0000008c   Code   RO         3655    i.UserControls_Button_AddWithSize  usercontrols_button.o
    0x08005560   0x0000000c   Code   RO         3656    i.UserControls_Button_Clear  usercontrols_button.o
    0x0800556c   0x000000ba   Code   RO         3657    i.UserControls_Button_Draw  usercontrols_button.o
    0x08005626   0x00000080   Code   RO         3658    i.UserControls_Button_DrawSTDsize  usercontrols_button.o
    0x080056a6   0x00000002   PAD
    0x080056a8   0x0000008c   Code   RO         3659    i.UserControls_Button_GetControl  usercontrols_button.o
    0x08005734   0x00000030   Code   RO         3660    i.UserControls_Button_GetLastControl  usercontrols_button.o
    0x08005764   0x000000d4   Code   RO         3661    i.UserControls_Button_Handle  usercontrols_button.o
    0x08005838   0x00000040   Code   RO         3662    i.UserControls_Button_RedrawAll  usercontrols_button.o
    0x08005878   0x0000002c   Code   RO         3663    i.UserControls_Button_RedrawControls  usercontrols_button.o
    0x080058a4   0x0000001c   Code   RO         3664    i.UserControls_Button_SizeOffset  usercontrols_button.o
    0x080058c0   0x00000074   Code   RO         3740    i.UserControls_CheckBox_Add  usercontrols_checkbox.o
    0x08005934   0x0000000c   Code   RO         3741    i.UserControls_CheckBox_Clear  usercontrols_checkbox.o
    0x08005940   0x00000048   Code   RO         3742    i.UserControls_CheckBox_Draw  usercontrols_checkbox.o
    0x08005988   0x00000014   Code   RO         3743    i.UserControls_CheckBox_Get  usercontrols_checkbox.o
    0x0800599c   0x000000b8   Code   RO         3744    i.UserControls_CheckBox_Handle  usercontrols_checkbox.o
    0x08005a54   0x0000000c   Code   RO         3790    i.UserControls_ListBox_Active  usercontrols_listbox.o
    0x08005a60   0x0000007c   Code   RO         3791    i.UserControls_ListBox_Add  usercontrols_listbox.o
    0x08005adc   0x0000002c   Code   RO         3792    i.UserControls_ListBox_Clear  usercontrols_listbox.o
    0x08005b08   0x00000054   Code   RO         3793    i.UserControls_ListBox_Draw  usercontrols_listbox.o
    0x08005b5c   0x00000030   Code   RO         3794    i.UserControls_ListBox_GetText  usercontrols_listbox.o
    0x08005b8c   0x00000298   Code   RO         3795    i.UserControls_ListBox_Handle  usercontrols_listbox.o
    0x08005e24   0x000000dc   Code   RO         3796    i.UserControls_ListBox_Item_Draw  usercontrols_listbox.o
    0x08005f00   0x00000088   Code   RO         3797    i.UserControls_ListBox_Items_Add  usercontrols_listbox.o
    0x08005f88   0x00000030   Code   RO         3798    i.UserControls_ListBox_NextPage  usercontrols_listbox.o
    0x08005fb8   0x00000024   Code   RO         3799    i.UserControls_ListBox_PageCount  usercontrols_listbox.o
    0x08005fdc   0x00000028   Code   RO         3800    i.UserControls_ListBox_PageItems  usercontrols_listbox.o
    0x08006004   0x00000020   Code   RO         3801    i.UserControls_ListBox_PrevPage  usercontrols_listbox.o
    0x08006024   0x000000c0   Code   RO         3933    i.UserControls_RadioButton_Add  usercontrols_radiobutton.o
    0x080060e4   0x0000000c   Code   RO         3934    i.UserControls_RadioButton_Clear  usercontrols_radiobutton.o
    0x080060f0   0x00000040   Code   RO         3935    i.UserControls_RadioButton_Draw  usercontrols_radiobutton.o
    0x08006130   0x00000028   Code   RO         3936    i.UserControls_RadioButton_GetDigitFromIndex  usercontrols_radiobutton.o
    0x08006158   0x00000024   Code   RO         3937    i.UserControls_RadioButton_GetTextFromIndex  usercontrols_radiobutton.o
    0x0800617c   0x00000038   Code   RO         3938    i.UserControls_RadioButton_Handle  usercontrols_radiobutton.o
    0x080061b4   0x0000005c   Code   RO         3939    i.UserControls_RadioButton_Set  usercontrols_radiobutton.o
    0x08006210   0x0000008c   Code   RO         4006    i.UserControls_ValueRegulator_Add  usercontrols_valueregulator.o
    0x0800629c   0x0000000c   Code   RO         4007    i.UserControls_ValueRegulator_Clear  usercontrols_valueregulator.o
    0x080062a8   0x000000e0   Code   RO         4008    i.UserControls_ValueRegulator_Draw  usercontrols_valueregulator.o
    0x08006388   0x00000150   Code   RO         4009    i.UserControls_ValueRegulator_Handle  usercontrols_valueregulator.o
    0x080064d8   0x00000034   Code   RO         4088    i.WR_CMD            touchpanel.o
    0x0800650c   0x00000178   Code   RO         4224    i._Form_Main_Show   formmanager.o
    0x08006684   0x00000188   Code   RO         4225    i._Form_Menu_Show   formmanager.o
    0x0800680c   0x00000068   Code   RO         4296    i._PWR_InitDownButton  pwr.o
    0x08006874   0x00000064   Code   RO         4297    i._PWR_InitUpButton  pwr.o
    0x080068d8   0x00000028   Code   RO         4549    i.__0sprintf$6      mc_w.l(printf6.o)
    0x08006900   0x00000008   Code   RO         4691    i.__aeabi_errno_addr  mc_w.l(errno.o)
    0x08006908   0x0000000c   Code   RO         4692    i.__read_errno      mc_w.l(errno.o)
    0x08006914   0x0000000e   Code   RO         4764    i.__scatterload_copy  mc_w.l(handlers.o)
    0x08006922   0x00000002   Code   RO         4765    i.__scatterload_null  mc_w.l(handlers.o)
    0x08006924   0x0000000e   Code   RO         4766    i.__scatterload_zeroinit  mc_w.l(handlers.o)
    0x08006932   0x00000002   PAD
    0x08006934   0x0000000c   Code   RO         4693    i.__set_errno       mc_w.l(errno.o)
    0x08006940   0x00000034   Code   RO         4226    i._btnStart         formmanager.o
    0x08006974   0x0000006c   Code   RO         3940    i._getNum           usercontrols_radiobutton.o
    0x080069e0   0x0000000e   Code   RO         4744    i._is_digit         mc_w.l(scanf_fp.o)
    0x080069ee   0x00000002   PAD
    0x080069f0   0x0000005c   Code   RO         4227    i._loadPrevious     formmanager.o
    0x08006a4c   0x000002f4   Code   RO         4554    i._printf_core      mc_w.l(printf6.o)
    0x08006d40   0x00000026   Code   RO         4555    i._printf_post_padding  mc_w.l(printf6.o)
    0x08006d66   0x00000030   Code   RO         4556    i._printf_pre_padding  mc_w.l(printf6.o)
    0x08006d96   0x00000002   PAD
    0x08006d98   0x00000044   Code   RO         3941    i._refresh          usercontrols_radiobutton.o
    0x08006ddc   0x0000000c   Code   RO         4228    i._saveClockSettings  formmanager.o
    0x08006de8   0x0000000a   Code   RO         4558    i._sputc            mc_w.l(printf6.o)
    0x08006df2   0x0000002a   Code   RO         4372    i.atof              m_ws.l(atof.o)
    0x08006e1c   0x0000005c   Code   RO         3288    i.check_fs          ff.o
    0x08006e78   0x00000010   Code   RO         3289    i.chk_chr           ff.o
    0x08006e88   0x00000230   Code   RO         3290    i.chk_mounted       ff.o
    0x080070b8   0x00000018   Code   RO         3291    i.clust2sect        ff.o
    0x080070d0   0x00000096   Code   RO         3292    i.create_chain      ff.o
    0x08007166   0x00000002   PAD
    0x08007168   0x00000200   Code   RO         3293    i.create_name       ff.o
    0x08007368   0x00000134   Code   RO         3294    i.dir_find          ff.o
    0x0800749c   0x00000104   Code   RO         3295    i.dir_next          ff.o
    0x080075a0   0x000000f8   Code   RO         3296    i.dir_read          ff.o
    0x08007698   0x000001ac   Code   RO         3297    i.dir_register      ff.o
    0x08007844   0x00000050   Code   RO         3298    i.dir_remove        ff.o
    0x08007894   0x000000a0   Code   RO         3299    i.dir_sdi           ff.o
    0x08007934   0x00000012   Code   RO         3235    i.disk_initialize   diskio.o
    0x08007946   0x00000022   Code   RO         3236    i.disk_ioctl        diskio.o
    0x08007968   0x00000026   Code   RO         3237    i.disk_read         diskio.o
    0x0800798e   0x00000008   Code   RO         3238    i.disk_status       diskio.o
    0x08007996   0x00000026   Code   RO         3239    i.disk_write        diskio.o
    0x080079bc   0x00000050   Code   RO         3300    i.f_chmod           ff.o
    0x08007a0c   0x00000012   Code   RO         3301    i.f_close           ff.o
    0x08007a1e   0x000000c2   Code   RO         3302    i.f_getfree         ff.o
    0x08007ae0   0x00000048   Code   RO         3303    i.f_gets            ff.o
    0x08007b28   0x00000146   Code   RO         3304    i.f_lseek           ff.o
    0x08007c6e   0x00000162   Code   RO         3305    i.f_mkdir           ff.o
    0x08007dd0   0x00000520   Code   RO         3306    i.f_mkfs            ff.o
    0x080082f0   0x00000020   Code   RO         3307    i.f_mount           ff.o
    0x08008310   0x0000013a   Code   RO         3308    i.f_open            ff.o
    0x0800844a   0x00000060   Code   RO         3309    i.f_opendir         ff.o
    0x080084aa   0x000001f4   Code   RO         3310    i.f_printf          ff.o
    0x0800869e   0x0000002c   Code   RO         3311    i.f_putc            ff.o
    0x080086ca   0x00000028   Code   RO         3312    i.f_puts            ff.o
    0x080086f2   0x00000162   Code   RO         3313    i.f_read            ff.o
    0x08008854   0x00000056   Code   RO         3314    i.f_readdir         ff.o
    0x080088aa   0x000000fe   Code   RO         3315    i.f_rename          ff.o
    0x080089a8   0x0000003e   Code   RO         3316    i.f_stat            ff.o
    0x080089e6   0x00000098   Code   RO         3317    i.f_sync            ff.o
    0x08008a7e   0x0000008c   Code   RO         3318    i.f_truncate        ff.o
    0x08008b0a   0x000000a6   Code   RO         3319    i.f_unlink          ff.o
    0x08008bb0   0x00000054   Code   RO         3320    i.f_utime           ff.o
    0x08008c04   0x000001a2   Code   RO         3321    i.f_write           ff.o
    0x08008da6   0x00000002   PAD
    0x08008da8   0x00000038   Code   RO         3633    i.ff_convert        ccsbcs.o
    0x08008de0   0x00000024   Code   RO         3634    i.ff_wtoupper       ccsbcs.o
    0x08008e04   0x00000066   Code   RO         3322    i.follow_path       ff.o
    0x08008e6a   0x00000002   PAD
    0x08008e6c   0x0000006c   Code   RO         3323    i.gen_numname       ff.o
    0x08008ed8   0x000000b0   Code   RO         4089    i.getDisplayPoint   touchpanel.o
    0x08008f88   0x000000e4   Code   RO         3324    i.get_fat           ff.o
    0x0800906c   0x00000004   Code   RO         3618    i.get_fattime       fattime.o
    0x08009070   0x000000d0   Code   RO         3325    i.get_fileinfo      ff.o
    0x08009140   0x00000012   Code   RO         3326    i.ld_clust          ff.o
    0x08009152   0x00000002   PAD
    0x08009154   0x00000048   Code   RO            2    i.main              main.o
    0x0800919c   0x00000012   Code   RO         3327    i.mem_cpy           ff.o
    0x080091ae   0x0000000e   Code   RO         3328    i.mem_set           ff.o
    0x080091bc   0x0000002e   Code   RO         3329    i.move_window       ff.o
    0x080091ea   0x00000002   PAD
    0x080091ec   0x00000126   Code   RO         3330    i.put_fat           ff.o
    0x08009312   0x00000062   Code   RO         3331    i.remove_chain      ff.o
    0x08009374   0x0000008c   Code   RO         3581    i.scan_files        sduser.o
    0x08009400   0x00000018   Code   RO         3582    i.scan_programs     sduser.o
    0x08009418   0x0000014a   Code   RO         4090    i.setCalibrationMatrix  touchpanel.o
    0x08009562   0x00000010   Code   RO         3332    i.st_clust          ff.o
    0x08009572   0x0000001a   Code   RO         3333    i.sum_sfn           ff.o
    0x0800958c   0x000000b6   Code   RO         3334    i.sync_fs           ff.o
    0x08009642   0x00000054   Code   RO         3335    i.sync_window       ff.o
    0x08009696   0x00000026   Code   RO         3336    i.validate          ff.o
    0x080096bc   0x00000d20   Data   RO         2617    .constdata          asciilib.o
    0x0800a3dc   0x000000ba   Data   RO         3337    .constdata          ff.o
    0x0800a496   0x00000002   PAD
    0x0800a498   0x0000000f   Data   RO         3586    .constdata          sduser.o
    0x0800a4a7   0x00000001   PAD
    0x0800a4a8   0x000004c0   Data   RO         3635    .constdata          ccsbcs.o
    0x0800a968   0x00000043   Data   RO         3666    .constdata          usercontrols_button.o
    0x0800a9ab   0x00000001   PAD
    0x0800a9ac   0x00000548   Data   RO         3943    .constdata          usercontrols_radiobutton.o
    0x0800aef4   0x00000032   Data   RO         4229    .constdata          formmanager.o
    0x0800af26   0x00000081   Data   RO         4715    .constdata          mc_w.l(ctype_o.o)
    0x0800afa7   0x00000001   PAD
    0x0800afa8   0x00000004   Data   RO         4716    .constdata          mc_w.l(ctype_o.o)
    0x0800afac   0x00000020   Data   RO         4762    Region$$Table       anon$$obj.o


    Execution Region RW_IRAM1 (Base: 0x20000000, Size: 0x00002760, Max: 0x00003000, ABSOLUTE)

    Base Addr    Size         Type   Attr      Idx    E Section Name        Object

    0x20000000   0x00000004   Data   RW          224    .data               stm32f4xx_it.o
    0x20000004   0x00000014   Data   RW          333    .data               system_stm32f4xx.o
    0x20000018   0x00000001   Data   RW         2618    .data               asciilib.o
    0x20000019   0x00000003   PAD
    0x2000001c   0x00000008   Data   RW         2695    .data               ili9481.o
    0x20000024   0x00000018   Data   RW         3066    .data               stm324xg_eval_sdio_sd.o
    0x2000003c   0x00000008   Data   RW         3338    .data               ff.o
    0x20000044   0x00000001   Data   RW         3587    .data               sduser.o
    0x20000045   0x00000001   Data   RW         3667    .data               usercontrols_button.o
    0x20000046   0x00000002   Data   RW         3746    .data               usercontrols_checkbox.o
    0x20000048   0x00000010   Data   RW         3803    .data               usercontrols_listbox.o
    0x20000058   0x00000010   Data   RW         3886    .data               usercontrols_messagebox.o
    0x20000068   0x00000002   Data   RW         3944    .data               usercontrols_radiobutton.o
    0x2000006a   0x00000004   Data   RW         4011    .data               usercontrols_valueregulator.o
    0x2000006e   0x00000002   PAD
    0x20000070   0x00000010   Data   RW         4048    .data               flash.o
    0x20000080   0x00000010   Data   RW         4092    .data               touchpanel.o
    0x20000090   0x00000004   Data   RW         4093    .data               touchpanel.o
    0x20000094   0x00000010   Data   RW         4230    .data               formmanager.o
    0x200000a4   0x0000000c   Data   RW         4339    .data               rtc_time.o
    0x200000b0   0x00000004   Data   RW         4694    .data               mc_w.l(errno.o)
    0x200000b4   0x00000004   PAD
    0x200000b8   0x000000cc   Zero   RW         3065    .bss                stm324xg_eval_sdio_sd.o
    0x20000184   0x0000001b   Zero   RW         3583    .bss                sduser.o
    0x2000019f   0x00000001   PAD
    0x200001a0   0x00000434   Zero   RW         3584    .bss                sduser.o
    0x200005d4   0x00000424   Zero   RW         3585    .bss                sduser.o
    0x200009f8   0x00000578   Zero   RW         3665    .bss                usercontrols_button.o
    0x20000f70   0x00000578   Zero   RW         3745    .bss                usercontrols_checkbox.o
    0x200014e8   0x00000410   Zero   RW         3802    .bss                usercontrols_listbox.o
    0x200018f8   0x0000046a   Zero   RW         3942    .bss                usercontrols_radiobutton.o
    0x20001d62   0x00000002   PAD
    0x20001d64   0x000005aa   Zero   RW         4010    .bss                usercontrols_valueregulator.o
    0x2000230e   0x00000002   PAD
    0x20002310   0x00000044   Zero   RW         4091    .bss                touchpanel.o
    0x20002354   0x0000000c   Zero   RW         4338    .bss                rtc_time.o
    0x20002360   0x00000400   Zero   RW         2602    STACK               startup_stm32f4xx.o

